(lp0
S'your interactions with the websites, apps, and other services you use, the content you view, the search queries you submit,'
p1
aS'user name, address, or other personal information'
p2
aS'clickstream to, on and from our Services, including date and time ; and products you viewed or searched'
p3
aS'other sites subscribers'
p4
aS'your purchases'
p5
aS'your device'
p6
aS'information about user visits'
p7
aS'pages visited'
p8
aS'service -LRB- s -RRB- you arrived from, and other clickstream data'
p9
aS'description of the page'
p10
aS'log file information'
p11
aS'log information'
p12
aS'your use of'
p13
aS'the App, the events that occur within the App, aggregated usage, performance data, and where the App was downloaded from'
p14
aS'electronics'
p15
aS'use of our online services, and interactions with our emails and online advertisements .'
p16
aS"`` xcompany.com '' if you use a private Internet access account, or `` yourschool.edu '' if you are connecting from a university 's domain"
p17
aS'the searches you submit on those applications'
p18
aS'confirmation when you open'
p19
aS'pages viewed and categories of interest, f'
p20
aS'standard server'
p21
aS'a cookie number, time and date of page view'
p22
aS'search activities on our site and on other third party sites'
p23
aS'IP address'
p24
aS'Version'
p25
aS'affiliate Web sites'
p26
aS'these Web pages'
p27
aS'the webpages viewed, whether you open,'
p28
aS"a user 's"
p29
aS'date and amount of your purchase'
p30
aS'Your interests and purchase behavior'
p31
aS'the links you click on and whether you open'
p32
aS'time of access'
p33
aS'a video on YouTube'
p34
aS'their visits'
p35
aS'the pages you view'
p36
aS'reports'
p37
aS'the pages you visit'
p38
aS"Affiliates ', Advertisers ' or partners ' sites"
p39
aS'those applications'
p40
aS'Search terms used to come to the site and while on the site -LRB- in aggregate only -RRB-'
p41
aS'the search'
p42
aS'your communications'
p43
aS'page visits and duration'
p44
aS'forums'
p45
aS'certain performance of our Services, such as, web traffic, click-throughs,'
p46
aS'information publicly online,'
p47
aS"track users ' movements"
p48
aS'type'
p49
aS'The URL'
p50
aS'visitors, usage patterns on various parts of our site, etc.'
p51
aS'information or privacy settings'
p52
aS'the full Uniform Resource Locator clickstream to, on and from our Services, including date and time ; and products you viewed or searched'
p53
aS'shopping behavior'
p54
aS'the download of the App -LRB- for example, whether via a particular advertisement for the App -RRB-'
p55
aS'information about your use of financial products and services'
p56
aS'example'
p57
aS'activities'
p58
aS'various parts'
p59
aS'certain of your activities on the Social Network'
p60
aS'key words'
p61
aS'your activities'
p62
aS'your private online communications'
p63
aS'your visits'
p64
aS'e.g., photos, comments, and other materials'
p65
aS'damage'
p66
aS'app usage'
p67
aS'areas of our Websites you visited'
p68
aS'what content you looked at or interacted with on our Websites'
p69
aS'time of visits'
p70
aS'the Web site'
p71
aS'description'
p72
aS'AOL Mail'
p73
aS'The collected information'
p74
aS'purchase'
p75
aS'reports that will tell us how many ads were presented and clicked on'
p76
aS'Information about your interactions with the websites, apps, and other services you use, the content you view, the search queries you submit, and information in cookies and similar technologies'
p77
aS'email from us'
p78
aS'other activity'
p79
aS'the amount of time spent on particular pages'
p80
aS'certain information about your activity'
p81
aS'your visit'
p82
aS'your name, address, email address or telephone number'
p83
aS'log files'
p84
aS"data and additional Other Information regarding your visits to the Site, such as your visits to the Site 's webpages, use of our features, and purchasing history"
p85
aS"visits to the Site or our Parent Companies '"
p86
aS'clickstream to, on and from our Services, including date and time'
p87
aS'other content'
p88
aS'track user?s movement'
p89
aS'our users'
p90
aS'interactions with our email messages, such as the links you click on and whether you open or forward a message, the date and time of these interactions'
p91
aS'the web surfing activities'
p92
aS'usage patterns on various parts of our site, etc. .'
p93
aS"the user 's anonymous cookie ID"
p94
aS'the time the Site is visited, which Web pages were visited on the Site,'
p95
aS'them'
p96
aS'our Website, the URL of the website you visit after leaving our Website,'
p97
aS'interests and activity'
p98
aS'the time and duration'
p99
aS'categories of interest'
p100
aS'the products you'
p101
aS'the site, track user?s movement'
p102
aS'pages viewed'
p103
aS'the purchases'
p104
aS'track information'
p105
aS'advertisements and promotions'
p106
aS'the page on which the Web beacon resides'
p107
aS'personal information'
p108
aS'products you viewed or searched for'
p109
aS'the Websites'
p110
aS'the Site, and the internet address of the web site'
p111
aS'time of visits, content'
p112
aS"The user ID we 've assigned to the account through which you are accessing our services Whether you are a Premium or Basic member The latitude and longitude of any location-based search you perform Files/listings accessed Version of our application that you 're using"
p113
aS'other site usage data'
p114
aS'content'
p115
aS'one or more unique identifiers'
p116
aS'your use of the Sites, including your search terms and search results'
p117
aS'The sites and search engines'
p118
aS'data about how you interact with those messages'
p119
aS'on-line activities'
p120
aS'information about individual visits'
p121
aS'advertising responses'
p122
aS'your exposure'
p123
aS'interaction with the website -LRB- such as the webpages viewed, whether you open, forward, or click-through links, emails, and ads -RRB-'
p124
aS"your visits to the Site 's webpages, use of our features, and purchasing history or preferences"
p125
aS'reports and analysis'
p126
aS'Your interests and purchase behavior ;'
p127
aS'number of times you have viewed an ad'
p128
aS'mouse-overs'
p129
aS'Any feedback'
p130
aS'Web beacons'
p131
aS'the URL'
p132
aS'the survey'
p133
aS'service'
p134
aS'the pixel tag'
p135
aS'indirect information'
p136
aS'ffiliate Web sites'
p137
aS'those pages, the amount of time spent on particular pages, the date and time you used the Services, and other similar information'
p138
aS'the Uniform Resource Locator'
p139
aS'Tulsaworld.com'
p140
aS"some cases, the computer you are using, The date and time you access the Library 's site, The URL of the pages you visit and files you download, The Internet address of the website from which you linked directly to our site, Characteristics of your system, and Search terms used to come to the site and while on the site -LRB- in aggregate only -RRB-"
p141
aS'our apps'
p142
aS'page views, promotion views or advertising responses'
p143
aS'The site you visited before visiting a Meredith website and the site you visited after visiting a Meredith website'
p144
aS'a Meredith website'
p145
aS'Indicate'
p146
aS'the aggregate'
p147
aS'browser type'
p148
aS'particular content or a particular email message'
p149
aS'contents'
p150
aS'forms and the time and date of your visit'
p151
aS'other actions'
p152
aS'you and your use of our Site'
p153
aS'the account information'
p154
aS'the device'
p155
aS'the dates and times of access .'
p156
aS'email messages'
p157
aS"subscribers ' use of our emails and our site"
p158
aS'your relationship'
p159
aS'site visitors -LRB- e.g. how visitors use the site,'
p160
aS'your private'
p161
aS'the information .'
p162
aS'usage data'
p163
aS'our Service'
p164
aS'date/time stamp, IP address, pages visited, time of visits, content viewed, ads viewed, the site -LRB- s -RRB-, application -LRB- s -RRB-, destination -LRB- s -RRB-, and/or service -LRB- s -RRB- you arrived from, and other clickstream data .'
p165
aS'services and features'
p166
aS'questions or comments,'
p167
aS'geolocation, browser and operating system type'
p168
aS'interaction with the website'
p169
aS'and/or service'
p170
aS'the last domain you visited before coming to our Website or the domain'
p171
aS'information about your interests'
p172
aS'technical information about your Services activity, your Services comments or the videos you watch on our Services .'
p173
aS'longitude of any location-based search'
p174
aS'information about your use of financial products and services that we offer'
p175
aS'and/or service -LRB- s -RRB- you arrived from'
p176
aS'The Internet address of the website from which you linked directly to our site'
p177
aS'use of our online services'
p178
aS'the Internet domain'
p179
aS'Information about your browsing activity as you'
p180
aS'our visitors'
p181
aS'The site you visited before visiting a Meredith website and the site you'
p182
aS'interaction with the website -LRB- such as the webpages viewed, whether you open, forward, or click-through links, emails, and ads -RRB- and other site usage data'
p183
aS'your IP address, geolocation, browser and operating system type, domain names, access times'
p184
aS'traffic patterns'
p185
aS'our API partners'
p186
aS'the time and duration of your use of the Services'
p187
aS'other online services'
p188
aS'our Services'
p189
aS'subject'
p190
aS'the dates and times'
p191
aS'your video viewing from'
p192
aS'services and features you'
p193
aS'Search terms'
p194
aS'we'
p195
aS'terms'
p196
aS'the type'
p197
aS'some cases'
p198
aS'your online'
p199
aS'your use of certain AOL communication tools'
p200
aS'information about your activities and preferences'
p201
aS'additional Other Information regarding your visits to the Site'
p202
aS'a web page or app'
p203
aS'use of the Sites and the Internet .'
p204
aS'page interaction information -LRB- such as scrolling, clicks, and mouse-overs -RRB-'
p205
aS'stream information, browser type, time and date, subject of advertisements'
p206
aS'Services comments'
p207
aS'landing pages'
p208
aS"example, `` xcompany.com '' if you use a private Internet access account, or `` yourschool.edu '' if you are connecting from a university 's domain"
p209
aS'online behavior or your relationship with us'
p210
aS'such capabilities'
p211
aS'the ways in which you interact with the Services, such as : referring and exit pages and URLs, platform type, the number of clicks, domain names, landing pages, pages viewed and the order of those pages, the amount of time spent on particular pages, the date and time you used the Services, and other similar information'
p212
aS'interest'
p213
aS'The ads'
p214
aS'website'
p215
aS'number of visits to the site, the pages visited,'
p216
aS'interest, f'
p217
aS'your device or our Service'
p218
aS'SRL'
p219
aS'system, date/time stamp,'
p220
aS'screen preferences'
p221
aS"a user 's cookie number"
p222
aS'the amount'
p223
aS'files you download, The Internet address of the website from which you linked directly to our site, Characteristics of your system, and Search terms used to come to the site and while on the site -LRB- in aggregate only -RRB-'
p224
aS'example, AOL Mail and AOL Instant Messenger'
p225
aS'a history of the pages'
p226
aS"the application you 're using The user ID we 've assigned to the account through which you are accessing our services Whether you are a Premium or Basic member The latitude and longitude of any location-based search you perform Files/listings accessed Version of our application that you 're using"
p227
aS'social networking areas of our Site'
p228
aS'the online services, gameplay data or other'
p229
aS'information about your online activities, such as the searches you conduct on our Sites and the pages you'
p230
aS'responses to the survey'
p231
aS'your computer hardware'
p232
aS'your video viewing with, or obtain information about your video viewing'
p233
aS'other customers'
p234
aS'the time and date on which you viewed the beacon'
p235
aS'user movement'
p236
aS'promotion views'
p237
aS'Internet Service Provider -LRB- ISP -RRB-, referring/exit pages'
p238
aS'domains visitors'
p239
aS'certain AOL communication tools'
p240
aS'our content'
p241
aS'The Internet address'
p242
aS'their site'
p243
aS'those pages'
p244
aS"information about subscribers ' use of our emails and our site"
p245
aS"the Uniform Resource Locator -LRB- `` URL '' -RRB- of the website your visited before coming to our Website, the URL of the website you visit after leaving our Website,"
p246
aS'the last web page you visited before coming to one of our sites The words you have looked up and results you selected The ads you'
p247
aS'The pages you visit and the information you request ; and Search terms used to get to our website from an external search engine and terms'
p248
aS'information about the services that you use and how you use them, like when you watch a video on YouTube,'
p249
aS'information about your use of our Services'
p250
aS'events that occur within our apps, such as how often you use our apps'
p251
aS'our Website or the domain'
p252
aS'patterns of our users'
p253
aS'purchasing patterns'
p254
aS'r interaction'
p255
aS'browser types'
p256
aS'response information'
p257
aS"The name of the Internet domain -LRB- for example, `` xcompany.com '' if you use a private Internet access account, or `` yourschool.edu '' if you are connecting from a university 's domain -RRB- ;"
p258
aS'advertisements and promotions on the Sites'
p259
aS'Messages'
p260
aS'your video viewing with, or obtain information about your video viewing from'
p261
aS'personal information related to your purchase of their products and services'
p262
aS'information about the advertisements'
p263
aS'stream information'
p264
aS'use information -LRB- not including your name, address, email address or telephone number -RRB- about your visits'
p265
aS'the number of page visits'
p266
aS'our Websites you visited'
p267
aS'your search queries'
p268
aS'nformation'
p269
aS'Web site addresses'
p270
aS'services and features you used For app users'
p271
aS'user-defined preferences'
p272
aS'Time and date'
p273
aS'products you viewed or searched'
p274
aS'your video viewing'
p275
aS'our email messages'
p276
aS'aggregated usage, performance data,'
p277
aS'use information'
p278
aS'comments'
p279
aS'the websites and applications you use'
p280
aS'online viewing behavior'
p281
aS'information relating to your usage of those services'
p282
aS'the full Uniform Resource Locator -LRB- URL -RRB- clickstream'
p283
aS'use of our websites and mobile services'
p284
aS'Service usage information'
p285
aS'your online behavior'
p286
aS'an order'
p287
aS'the search queries'
p288
aS'our video'
p289
aS'number of page visits, pages viewed on our Sites, search engine referrals, browsing activities over time and across other sites following your visit to one of our Sites or apps, and responses to advertisements and promotions on the Sites and on sites and apps where we advertise .'
p290
aS'search term'
p291
aS'the phone number'
p292
aS'count of your return visits'
p293
aS'services you access, and information about your computer hardware'
p294
aS'The URL of the last web page you visited before coming to one'
p295
aS'Information about your interactions with the websites, apps, and other services you use, the content you view, the search queries you submit, and information in cookies and similar technologies ;'
p296
aS'the Internet'
p297
aS'the full Uniform Resource Locator -LRB- URL -RRB- clickstream to, through, and from our Websites, including date and time ; one or more unique identifiers'
p298
aS'people'
p299
aS'the Web page'
p300
aS'your browsing activity'
p301
aS'other community posting and social networking areas on our Site'
p302
aS'any information disclosed in your communication'
p303
aS'certain things'
p304
aS'your activity on our Services,'
p305
aS'our Site, such as type of pages viewed and categories of interest'
p306
aS'site users'
p307
aS'the content'
p308
aS'click-through links'
p309
aS'the address'
p310
aS'users activities'
p311
aS'information about your visit to the Site'
p312
aS'the webpages'
p313
aS'such monitoring'
p314
aS'details of how you used our service, such as your search queries .'
p315
aS'information including a cookie number, time and date of page view and a description of the page on which the Web beacon resides'
p316
aS'exit pages and URLs'
p317
aS"a university 's domain"
p318
aS'this website as well as other sites'
p319
aS'the online services, gameplay data or other information'
p320
aS'Track'
p321
aS'an external search engine and terms'
p322
aS'nd'
p323
aS'other usage information about the use of the NYT Services'
p324
aS'rowser types'
p325
aS'purchase history'
p326
aS'your use of the Services'
p327
aS'the user'
p328
aS'your interactions with the websites, apps, and other services'
p329
aS'profile information'
p330
aS'type of pages viewed and categories of interest, f'
p331
aS'These companies'
p332
aS'your use of financial products and services'
p333
aS'he full Uniform Resource Locator clickstream to, on and from our Services, including date and time ; and products you viewed or searched .'
p334
aS'time'
p335
aS'navigation history'
p336
aS'the videos you watch on our Service'
p337
aS'example on blogs, discussion forums, or other community posting or social networking areas of our Site'
p338
aS'the website you visited before visiting our Services'
p339
aS'general terms about certain aspects of site visitors -LRB- e.g. how visitors use the site, general demographic attributes of visitors, usage patterns on various parts of our site, etc. . -RRB-'
p340
aS'usage trends'
p341
aS'advertising provided in the online service'
p342
aS'Internet Service Provider -LRB- ISP -RRB-, referring/exit pages,'
p343
aS'our ads and content'
p344
aS'nformation you provide or post on our Services or allow us to access when you do certain things'
p345
aS'the Service, domain names, landing pages'
p346
aS'their online activities .'
p347
aS'anonymous browsing data'
p348
aS'visits to the site, the pages visited,'
p349
aS'your system'
p350
aS'purchase or redemption information'
p351
aS'visits to multiple sites'
p352
aS'domain names'
p353
aS'the URL of the page on which the pixel tag appears ; the time -LRB- and length of time -RRB- the page containing the pixel tag'
p354
aS'application'
p355
aS'other Websites'
p356
aS'times they have viewed'
p357
aS'xcompany.com'
p358
aS'the date on which you visit the Site'
p359
aS'their visits to this website as well as other sites'
p360
aS'the website from which you linked directly to our site'
p361
aS'online behavior'
p362
aS'shopping cart, screen preferences, and the pages of the Site'
p363
aS'The URL of the pages you visit'
p364
aS'your visit to their site, such as number of times you have viewed an ad'
p365
aS'the Web page -LRB- s -RRB-'
p366
aS'address'
p367
aS'domains'
p368
aS'web page'
p369
aS"the user 's"
p370
aS'your visit, including the pages you view, the links you click and other actions taken in connection with our sites and Services'
p371
aS'the number of page visits, pages viewed on our Sites, search engine referrals, browsing activities over time and across other sites following your visit to one of our Sites or apps, and responses to advertisements and promotions on the Sites and on sites and apps where we advertise .'
p372
aS'other customers ; the full Uniform Resource Locator -LRB- URL -RRB- clickstream'
p373
aS'the download'
p374
aS'the web pages'
p375
aS'visit'
p376
aS'your browsing history across participating websites and mobile services to show you interest-based advertisements .'
p377
aS'date and amount'
p378
aS'additional Other Information'
p379
aS'online identities'
p380
aS'other information'
p381
aS'their use'
p382
aS'our Services, such as, web traffic, click-throughs,'
p383
aS'date/time stamp, and click stream data'
p384
aS'demographic attributes of visitors, usage patterns on various parts of our site, etc.'
p385
aS'the web page from which you came .'
p386
aS'comments,'
p387
aS"Companies '"
p388
aS'our Site, such as type of pages viewed and categories of interest,'
p389
aS'longitude'
p390
aS'various statistical data'
p391
aS'the content you have been shown or may have clicked on'
p392
aS'similar technologies'
p393
aS'the full Uniform Resource Locator -LRB- URL -RRB- clickstream to, through, and from our Websites, including date and time ; one or more unique identifiers ; products you viewed or searched for ; areas of our Websites you visited ; and the phone number you used to call our toll-free number'
p394
aS'stream'
p395
aS'a list'
p396
aS'clicks to analyze trends, administer the site, track user?s movement in the aggregate'
p397
aS'your usage'
p398
aS'customers sales, traffic patterns, and related Website information'
p399
aS'ervices comments or the videos you watch on our Service'
p400
aS'use information -LRB- not including your name, address, email address or telephone number -RRB-'
p401
aS'time and date of a page view'
p402
aS'our application'
p403
aS'applications'
p404
aS'date'
p405
aS'such'
p406
aS'data'
p407
aS'search engine referrals'
p408
aS'the usage, browsing patterns of our users'
p409
aS'information about your visit to the Site i'
p410
aS"a university 's"
p411
aS'searches conducted through the website'
p412
aS'your comments'
p413
aS'usage, browsing patterns'
p414
aS'URL of the request'
p415
aS'your name'
p416
aS'access time, the Web page you came from, the URL you go to next, and the Web page -LRB- s -RRB- that you access during your visit .'
p417
aS'information -LRB- not including your name, address, email address or telephone number -RRB- about your visits to this and other Web sites'
p418
aS'certain performance'
p419
aS"your visits to the Site 's webpages, use of our features, and purchasing history"
p420
aS'forms'
p421
aS'your message'
p422
aS'a Service'
p423
aS'recipients'
p424
aS'views'
p425
aS'your online behavior, search activities on our site'
p426
aS'files you download'
p427
aS'usage of our Services'
p428
aS'the domain'
p429
aS'subscribers'
p430
aS'not'
p431
aS"the user 's IP address"
p432
aS'use of the Sites and the Internet'
p433
aS'our online services'
p434
aS'social networking areas'
p435
aS'our features'
p436
aS'time and date, subject of advertisements'
p437
aS"the Internet domain -LRB- for example, `` xcompany.com '' if you use a private Internet access account, or `` yourschool.edu '' if you are connecting from a university 's domain -RRB-"
p438
aS"The name of the Internet domain -LRB- for example, `` xcompany.com '' if you use a private Internet access account, or `` yourschool.edu '' if you are connecting from a university 's domain -RRB-"
p439
aS'The URL of the last web page you visited before coming to one of our sites The words you have looked up and results you selected The ads you'
p440
aS'the Site viewed by the visitor'
p441
aS"the account through which you are accessing our services Whether you are a Premium or Basic member The latitude and longitude of any location-based search you perform Files/listings accessed Version of our application that you 're using"
p442
aS'information about your use of our'
p443
aS'information about your activities'
p444
aS'your browsing'
p445
aS'your return'
p446
aS'information, reports and analysis about the usage, browsing patterns of our users .'
p447
aS'purchase history, which we may aggregate with similar information from other customers ; the full Uniform Resource Locator -LRB- URL -RRB- clickstream to,'
p448
aS'our search engine'
p449
aS'redemption information'
p450
aS'the site -LRB- in aggregate only -RRB-'
p451
aS'the date and time you used the Services'
p452
aS'purchasing history or preferences'
p453
aS'ISP'
p454
aS'the full Uniform Resource Locator -LRB- URL -RRB- clickstream to, through, and from our Websites, including date and time'
p455
aS'one'
p456
aS'r interaction with our Site'
p457
aS'the site -LRB- s -RRB-, application -LRB- s -RRB-, destination -LRB- s -RRB-, and/or service -LRB- s -RRB- you arrived from, and other clickstream data'
p458
aS'stream information, browser type, time and date, subject of advertisements clicked or scrolled over -RRB-'
p459
aS'pages people visit'
p460
aS'cookies and similar technologies'
p461
aS'your interaction with content'
p462
aS'The date and time'
p463
aS'this website'
p464
aS'Services, such as,'
p465
aS'the computer you are using'
p466
aS'terms used'
p467
aS'your use of the Sites'
p468
aS'any questions'
p469
aS'the page you are visiting on our site'
p470
aS'other public areas'
p471
aS'other community posting'
p472
aS'audio content'
p473
aS'the path you take through our websites'
p474
aS'the websites, apps, and other services'
p475
aS'your visit to our sites'
p476
aS'other clickstream data'
p477
aS'the web surfing activities of visitors'
p478
aS'our sites and Services'
p479
aS'online'
p480
aS'the searches you conduct on our Sites and the pages you'
p481
aS'statistical data'
p482
aS'track'
p483
aS'user behavior'
p484
aS'different websites'
p485
aS'visitors'
p486
aS'the areas'
p487
aS'browsing activities'
p488
aS'pages'
p489
aS'a subscriber'
p490
aS'site users and site activity'
p491
aS'a comment'
p492
aS'shop'
p493
aS'various statistical data such as which pages you visit on our Websites, how long you stay on them, and what you click'
p494
aS"subscribers ' use"
p495
aS'these service providers'
p496
aS'our site, etc. .'
p497
aS'your communication'
p498
aS'We'
p499
aS'our sites'
p500
aS'usage patterns'
p501
aS'Services'
p502
aS'Internet Service Provider'
p503
aS'information relating to your usage of those services .'
p504
aS'something of interest'
p505
aS'certain aspects'
p506
aS"your device or computer 's connection"
p507
aS'the use'
p508
aS'unauthorized attempts'
p509
aS'technical information about your Services activity'
p510
aS'exit pages and URLs, number of clicks and how you interact with links on the Service, domain names, landing pages, pages viewed, and other such information'
p511
aS'ublish information about your activity on our Services,'
p512
aS'indirect information,'
p513
aS'search activities on our site'
p514
aS'visits to this website as well as other sites on the internet .'
p515
aS'the time the Web page was viewed'
p516
aS'Time and date of access'
p517
aS'your activities and preferences'
p518
aS'trends, administer the site, track user?s movement in the aggregate'
p519
aS'access online or mobile services'
p520
aS'your purchase'
p521
aS'number of clicks and how you interact with links on the Service, domain names, landing pages, pages viewed, and other such information'
p522
aS'discussion forums or other community posting and social networking areas on our Site'
p523
aS'date and time of visits to the Sites and time'
p524
aS'sites'
p525
aS'the NYT Services, and their subscribing and purchasing patterns,'
p526
aS'other materials'
p527
aS'date,'
p528
aS'a Meredith website and the site'
p529
aS'general demographic attributes'
p530
aS'your activities on our sites and apps .'
p531
aS'services you access'
p532
aS'umber'
p533
aS'trends, administer the site, track user?s movement'
p534
aS'about your interaction with our Site, such as type of pages viewed and categories of interest,'
p535
aS'any location-based search'
p536
aS'your order'
p537
aS'usage and browsing patterns of our users'
p538
aS'e.g. how visitors use the site'
p539
aS'the websites and applications'
p540
aS'those ads ;'
p541
aS'the computer'
p542
aS'The site'
p543
aS'site usage'
p544
aS'telephone number'
p545
aS"users ' visit to this site, such as number of times they have viewed an ad -LRB- but not user name, address, or other personal information -RRB-"
p546
aS'your online behavior and your computer, mobile or other device .'
p547
aS'photos'
p548
aS'The name'
p549
aS'usage and browsing patterns'
p550
aS'click-throughs'
p551
aS'advertisements you view and links you'
p552
aS'browser types, Internet Service Provider -LRB- ISP -RRB-, referring/exit pages, operating system, date/time stamp, and click stream data'
p553
aS'the amount of time'
p554
aS'use of our features'
p555
aS'ustomers sales, traffic patterns, and related Website information'
p556
aS'the site -LRB- s -RRB-'
p557
aS'platform type'
p558
aS'the Web page you came from'
p559
aS'pages viewed on our Sites, search engine referrals, browsing activities over time and across other sites following your visit to one of our Sites or apps'
p560
aS'our Site'
p561
aS'affiliate Web sites and the purchases'
p562
aS'the Services that you use, and when and how long you use them'
p563
aS'the webpages viewed, whether you open, forward'
p564
aS'content and advertisements'
p565
aS'Behavioral Information'
p566
aS'Information about your interactions with our video or audio content, such as the type of content'
p567
aS'the searches you conduct on our Sites'
p568
aS'events'
p569
aS'the number'
p570
aS'the pages of the Site'
p571
aS'order information'
p572
aS'your visited before coming to our Website, the URL of the website you visit after leaving our Website,'
p573
aS'Usage information'
p574
aS'gameplay data'
p575
aS'the website your visited before coming to our Website, the URL of the website you visit after leaving our Website'
p576
aS'tracking'
p577
aS'that information'
p578
aS'what content'
p579
aS'usage activities'
p580
aS'It'
p581
aS'the last domain'
p582
aS'times you have viewed an ad'
p583
aS'our Websites'
p584
aS'your interactions with our email messages, such as the links you click on and whether you open or forward a message, the date and time of these interactions'
p585
aS'The sites and search engines that have referred visitors'
p586
aS'track information about app usage .'
p587
aS'traffic, click-throughs, etc'
p588
aS'our content, email messages and advertising'
p589
aS'their online'
p590
aS'these widgets'
p591
aS'actions'
p592
aS'only a limited set'
p593
aS'the web page'
p594
aS'the websites and applications you use, the content you view, and the searches you submit on those applications'
p595
aS'interest-based advertisements'
p596
aS'terms you enter'
p597
aS'your activities, including what you view on the Sites,'
p598
aS'the site, general demographic attributes of visitors,'
p599
aS"These Tracking Technologies collect `` click stream '' data and additional Other Information regarding your visits to the Site, such as your visits to the Site 's webpages, use of our features, and purchasing history or preferences"
p600
aS'some merchants'
p601
aS'Services comments or the videos'
p602
aS'your offline'
p603
aS"computer 's connection"
p604
aS'traffic'
p605
aS'users activities on this website'
p606
aS'pages people'
p607
aS'any specific information'
p608
aS'Characteristics'
p609
aS"Files/listings accessed Version of our application that you 're using"
p610
aS'rooms or other public areas'
p611
aS'certain information'
p612
aS'a particular advertisement'
p613
aS'certain aspects of site visitors'
p614
aS'duration'
p615
aS'anonymous and aggregate advertising metrics, such as counting page views, promotion views, or advertising responses'
p616
aS'the request'
p617
aS'a visitor'
p618
aS'a cookie number, time and date of page view and a description of the page on which the Web beacon resides'
p619
aS'the Service'
p620
aS"partners '"
p621
aS'a gaming publication'
p622
aS'the App'
p623
aS'your use of and interaction with the website -LRB- such as the webpages viewed, whether you open, forward, or click-through links, emails, and ads -RRB- and other site usage data'
p624
aS'scrolling, clicks, and mouse-overs'
p625
aS'content usage information'
p626
aS'similar information'
p627
aS'your IP address'
p628
aS'a Premium or Basic member The latitude'
p629
aS'reports and analysis about the usage, browsing patterns of our users'
p630
aS'traffic data'
p631
aS'related information'
p632
aS"our services Whether you are a Premium or Basic member The latitude and longitude of any location-based search you perform Files/listings accessed Version of our application that you 're using"
p633
aS'accounts'
p634
aS'the date'
p635
aS'your'
p636
aS'links on the Service, domain names, landing pages'
p637
aS"users ' visits"
p638
aS'information about your use of certain AOL communication tools'
p639
aS'page visits'
p640
aS'terms used to get to our website from an external search engine and terms'
p641
aS'similar information from other customers ; the full Uniform Resource Locator -LRB- URL -RRB- clickstream'
p642
aS'an ad'
p643
aS'a private Internet access account'
p644
aS'number of times they have viewed'
p645
aS'clicks and how you interact with links on the Service, domain names, landing pages, pages viewed, and other such information'
p646
aS'the website'
p647
aS'your use of our services'
p648
aS'one of our sites'
p649
aS'the contents of your communications'
p650
aS'the online service'
p651
aS'other community'
p652
aS'The words'
p653
aS'general demographic attributes of visitors'
p654
aS'number of times they have viewed an ad'
p655
aS'the search performed'
p656
aS'videos'
p657
aS'certain'
p658
aS'sales'
p659
aS'your interactions with the websites, apps, and other services you use'
p660
aS'our websites'
p661
aS'pages visited and search key words'
p662
aS'certain AOL communication tools -LRB- for example, AOL Mail and AOL Instant Messenger -RRB-'
p663
aS'the source'
p664
aS'the address of a referring websites, the path you take through our websites, and other information about your session on our websites .'
p665
aS"other users '"
p666
aS"the name of the application you 're using"
p667
aS'the app'
p668
aS'additional traffic data such as time of access, date of access, software crash reports, session identification number, access times'
p669
aS'a particular page'
p670
aS'any information'
p671
aS'set of responses to the survey'
p672
aS'The latitude'
p673
aS'your usage information'
p674
aS'anonymous site'
p675
aS"track users '"
p676
aS'Service usage activities .'
p677
aS'subject of advertisements clicked or scrolled over'
p678
aS'websites'
p679
aS'other device'
p680
aS'behavioral'
p681
aS'our Services, such as, web traffic'
p682
aS'your visit to one of our Sites or apps'
p683
aS'information in cookies and similar technologies'
p684
aS'visits to the Sites and time'
p685
aS'your Service usage activities'
p686
aS'the time the Site is visited, which Web pages were visited on the Site'
p687
aS'Other navigation data'
p688
aS'access and similar information'
p689
aS'the Site and other websites you have visited'
p690
aS'a particular page within the Site'
p691
aS'some searches conducted through the Web search features'
p692
aS'chat areas'
p693
aS'other services'
p694
aS'our Sites, search engine referrals,'
p695
aS'your video viewing with, or obtain information'
p696
aS'our Website pages and promotions'
p697
aS'Any feedback that is submitted through these forms or through email'
p698
aS'the internet address of the web site'
p699
aS'a Premium or Basic member The latitude and longitude of any location-based search'
p700
aS'other information about you'
p701
aS'cookies'
p702
aS'omment'
p703
aS'your interactions'
p704
aS"the Internet, The Internet Protocol address of your Internet provider 's gateway,"
p705
aS'The information gathered on Tulsaworld.com'
p706
aS'user activity'
p707
aS'what'
p708
aS'statistical information about the usage of the Site'
p709
aS'nd page-view information from some merchants'
p710
aS'movement'
p711
aS'their products and services'
p712
aS'pieces of content'
p713
aS'the number of page visits, pages viewed on our Sites, search engine referrals, browsing activities over time and across other sites following your visit to one of our Sites or apps, and responses to advertisements and promotions on the Sites and on sites and apps where we advertise'
p714
aS'access time'
p715
aS'our Site with these service providers for their use'
p716
aS'search'
p717
aS'your online activities'
p718
aS'Indicate whether a visitor answered any questions Link a particular visitor to any response of set of responses to the survey'
p719
aS'the account'
p720
aS'advertising'
p721
aS'the traffic'
p722
aS'a page view'
p723
aS'the specific ad or link -LRB- s -RRB- that the user clicked on to visit the site'
p724
aS'weblogs and other communication data'
p725
aS'social networking tools'
p726
aS'usage of the Site'
p727
aS'the content you have been shown or may have clicked on, etc'
p728
aS'a list of subscribers'
p729
aS'the full Uniform Resource Locator clickstream to, on and from our Services, including date and time'
p730
aS'their subscribing and purchasing patterns'
p731
aS'information about your online activities'
p732
aS'destination'
p733
aS'your actions'
p734
aS'the page containing the pixel tag'
p735
aS'only a limited set of information including a cookie number, time and date of page view and a description of the page on which the Web beacon resides'
p736
aS'he full Uniform Resource Locator'
p737
aS'sales, traffic patterns, and related Website information'
p738
aS'domain names, landing pages'
p739
aS'session identification number, access times'
p740
aS'the searches you conduct on our Sites and the pages you visit'
p741
aS'additional traffic data'
p742
aS'the site, the pages'
p743
aS'user visits'
p744
aS'visits to certain pages'
p745
aS"users ' visit to this site, such as number of times they have viewed"
p746
aS'your interactions with our video or audio content'
p747
aS'the URL you go to next'
p748
aS'the App, the events that occur within the App, aggregated usage, performance data,'
p749
aS'history'
p750
aS'The URL of the pages you visit and files you download, The Internet address of the website from which you linked directly to our site'
p751
aS'Uniform Resource Locator'
p752
aS'anonymous site statistical data .'
p753
aS'messages'
p754
aS'information'
p755
aS'yourschool.edu'
p756
aS'social networking areas on our Site'
p757
aS'the pages you access and similar information'
p758
aS'menus'
p759
aS'the pages of the Site viewed by the visitor'
p760
aS'access times'
p761
aS'our sites and apps'
p762
aS'information about visits to multiple sites'
p763
aS'your computer'
p764
aS'the use of the NYT Services'
p765
aS'the time and date of your visit'
p766
aS'your purchase of their products and services'
p767
aS"comments on other users ' profiles"
p768
aS'usage data .'
p769
aS"the application you 're using"
p770
aS'your Services activity'
p771
aS'the users'
p772
aS'Characteristics of your system'
p773
aS'operating system, date/time stamp, and click stream data'
p774
aS'ublish information'
p775
aS"other users ' profiles"
p776
aS'our site using our search engine'
p777
aS'exit pages and URLs, platform type, the number of clicks, domain names, landing pages'
p778
aS'ffiliate Web sites and the purchases'
p779
aS'a unique number'
p780
aS'your use of our'
p781
aS'our services'
p782
aS'URL'
p783
aS"count of your return visits to the Site or our Parent Companies ',"
p784
aS'your use of our Website pages and promotions'
p785
aS'your usage of those services'
p786
aS'other information about your interaction with content offered through a Service'
p787
aS'online behavior, search activities on our site and on other third party sites,'
p788
aS'aggregate with similar information from other customers ; the full Uniform Resource Locator -LRB- URL -RRB- clickstream'
p789
aS'rious statistical data'
p790
aS'the website your visited before coming to our Website, the URL of the website you visit after leaving our Website,'
p791
aS'request to access'
p792
aS'advertisers'
p793
aS'the Services'
p794
aS'time spent on particular pages'
p795
aS'type of pages viewed and categories of interest'
p796
aS'the Services and other Web sites'
p797
aS'certain information about your activities on our Sites, such as pages visited and search key words'
p798
aS'discussion forums'
p799
aS'various parts of our site, etc. .'
p800
aS'this traffic'
p801
aS"The date and time you access the Library 's site, The URL of the pages you visit"
p802
aS'your exposure to the ad'
p803
aS'behavioral or indirect information,'
p804
aS'their subscribing'
p805
aS'usage of our'
p806
aS'the Site'
p807
aS'browsers people'
p808
aS"Uniform Resource Locator -LRB- `` URL '' -RRB- of the website"
p809
aS'our Sites'
p810
aS'number'
p811
aS'traffic patterns and user behavior'
p812
aS'your interactions with the websites, apps, and other services you use, the content you view, the search queries you submit'
p813
aS'Your app'
p814
aS'traffic patterns and user behavior,'
p815
aS'page views, promotion views, or advertising responses'
p816
aS'our site'
p817
aS'YouTube and Location History'
p818
aS"The name of the domain from which you access the Internet, The Internet Protocol address of your Internet provider 's gateway, or in some cases, the computer you are using, The date and time you access the Library 's site, The URL of the pages you visit and files you download, The Internet address of the website from which you linked directly to our site, Characteristics of your system, and Search terms used to come to the site and while on the site -LRB- in aggregate only -RRB- ."
p819
aS"the Site 's"
p820
aS'information about your use of and interaction with the website -LRB- such as the webpages viewed, whether you open, forward, or click-through links, emails, and ads -RRB- and other site usage data .'
p821
aS'this and other Websites'
p822
aS'your visits to this and other Web sites'
p823
aS'URL of the page'
p824
aS'application -LRB- s -RRB-'
p825
aS'how often you use the App, the events that occur within the App, aggregated usage, performance data, and where the App was downloaded from'
p826
aS'your activities on our Sites, such as pages visited and search key words'
p827
aS'categories of interest, f'
p828
aS'advertising or notices'
p829
aS'Web pages, content and advertisements you view and links you'
p830
aS'ages'
p831
aS'how you interact with links on the Service, domain names, landing pages, pages viewed, and other such information'
p832
aS'the events that occur within the App'
p833
aS'other such information'
p834
aS'search term and search'
p835
aS'message boards, chat areas'
p836
aS'technical information'
p837
aS'date of access'
p838
aS"the name of the application you 're using The user ID we 've assigned to the account through which you are accessing our services Whether you are a Premium or Basic member The latitude and longitude of any location-based search you perform Files/listings accessed Version of our application that you 're using"
p839
aS'searches or user-defined preferences'
p840
aS"Affiliates '"
p841
aS'services'
p842
aS'page view'
p843
aS'a confirmation'
p844
aS'mobile'
p845
aS'The name of the Internet domain'
p846
aS'a referral site'
p847
aS'umber of visits to the site, the pages visited,'
p848
aS'pages Site visitors access'
p849
aS'the App -LRB- for example, whether via a particular advertisement for the App -RRB-'
p850
aS'the Sites'
p851
aS"the Library 's site, The URL of the pages you visit and files you download, The Internet address of the website from which you linked directly to our site,"
p852
aS'one of our API partners'
p853
aS'contents of your shopping cart'
p854
aS'the areas of our site'
p855
aS'a particular email message'
p856
aS'Service'
p857
aS'the time -LRB- and length of time -RRB-'
p858
aS"the computer you are using, The date and time you access the Library 's site, The URL of the pages you visit and files you download, The Internet address of the website from which you linked directly to our site, Characteristics of your system, and Search terms used to come to the site and while on the site -LRB- in aggregate only -RRB-"
p859
aS'forward a message, the date and time of these interactions and the device'
p860
aS'the contents'
p861
aS'length of time'
p862
aS'Version of our application'
p863
aS'pages viewed on our Sites, search engine referrals, browsing activities over time and across other sites following your visit to one of our Sites or apps, and responses to advertisements and promotions on the Sites and on sites and apps where we advertise'
p864
aS'your browsing activity as you'
p865
aS'our Facebook page'
p866
aS'emails'
p867
aS'forward a message, the date and time of these interactions'
p868
aS'your use of the app'
p869
aS'web pages you visit'
p870
aS'activity'
p871
aS'information about your use of certain AOL communication tools -LRB- for example, AOL Mail and AOL Instant Messenger -RRB-'
p872
aS'set'
p873
aS'details of your visits'
p874
aS'additional traffic data such as time of access'
p875
aS'the videos'
p876
aS'these interactions'
p877
aS'referring / exit pages and URLs, number of clicks and how you interact with links on the Service, domain names, landing pages, pages viewed'
p878
aS'your use of certain AOL communication tools -LRB- for example, AOL Mail and AOL Instant Messenger -RRB-'
p879
aS'information related to the ways in which you interact with the Services, such as : referring and exit pages and URLs, platform type, the number of clicks, domain names, landing pages, pages viewed and the order of those pages, the amount of time spent on particular pages, the date and time you used the Services, and other similar information .'
p880
aS'the web pages you visit'
p881
aS'information -LRB- not including your name, address, email address or telephone number -RRB-'
p882
aS'sites and apps'
p883
aS'a cookie number, time and date'
p884
aS'responses'
p885
aS'the Site and other websites'
p886
aS'the date and time of these interactions'
p887
aS'services you access, and information about your computer hardware and software including your IP address, geolocation, browser and operating system type, domain names, access times'
p888
aS"The date and time you access the Library 's site, The URL of the pages you visit and files you download, The Internet address of the website from which you linked directly to our site,"
p889
aS'advertisements clicked or scrolled over'
p890
aS'anonymous and aggregate advertising metrics'
p891
aS'ads'
p892
aS'other communication data'
p893
aS'these features'
p894
aS'connection'
p895
aS'exit pages and URLs, number of clicks'
p896
aS'our service, such as your search queries'
p897
aS"Uniform Resource Locator -LRB- `` URL '' -RRB- of the website your visited before coming to our Website, the URL of the website you visit after leaving our Website"
p898
aS'demographic attributes'
p899
aS'electronics with us'
p900
aS'standard server log information'
p901
aS'The Internet Protocol address'
p902
aS'the usage'
p903
aS'content usage'
p904
aS'financial products and services'
p905
aS'server logs'
p906
aS'their subscribing and'
p907
aS'The user ID'
p908
aS'you and your activities'
p909
aS"the Site 's webpages"
p910
aS'the visitor'
p911
aS'online communications'
p912
aS'the pages you view, the links you click and other actions taken in connection with our sites and Services'
p913
aS'stream data'
p914
aS'behavior'
p915
aS'their online activities'
p916
aS'site visitors'
p917
aS'the page you are visiting on our site,'
p918
aS'message boards'
p919
aS'this and other Web sites'
p920
aS'the wireless provider'
p921
aS'software crash reports'
p922
aS'technical information about your Services activity, your Services comments or the videos'
p923
aS'our site -LRB- s -RRB-'
p924
aS'forward a message'
p925
aS'your video'
p926
aS'tracking of what content you looked at or interacted with on our Websites'
p927
aS'the links'
p928
aS"partners ' sites"
p929
aS'aggregate'
p930
aS'These technologies'
p931
aS'data about how users are using our Services'
p932
aS'usage patterns on various parts of our site, etc.'
p933
aS'Information about your browsing activity'
p934
aS'email response information'
p935
aS'page interaction information'
p936
aS'User Content -LRB- e.g., photos, comments, and other materials -RRB-'
p937
aS'these forms'
p938
aS'questions'
p939
aS'our Services,'
p940
aS"the Library 's site, The URL of the pages you visit"
p941
aS'stream information, browser type, time and date'
p942
aS'our emails and online advertisements'
p943
aS'advertisements'
p944
aS'performance data'
p945
aS'your online activities, such as the searches you conduct on our Sites and the pages you'
p946
aS"Parent Companies '"
p947
aS'customers'
p948
aS'use of your online viewing behavior'
p949
aS'your interests'
p950
aS'information about your computer hardware'
p951
aS'social media and shopping behavior'
p952
aS'the time the Web page was viewed,'
p953
aS'related Website information'
p954
aS'your use of the NYT Services'
p955
aS'methods'
p956
aS'your visits to this and other Websites'
p957
aS'the ways'
p958
aS'some'
p959
aS'trends'
p960
aS'those messages'
p961
aS'visits to this and other websites'
p962
aS'pages of our Sites'
p963
aS'Site behavior'
p964
aS'an external search engine'
p965
aS'referring/exit pages'
p966
aS'the online services'
p967
aS'your shopping cart'
p968
aS'the services'
p969
aS'app users'
p970
aS'the source of the download of the App -LRB- for example, whether via a particular advertisement for the App -RRB-, when the App is launched, how many times a particular page within the Site is visited, which features the users'
p971
aS'our emails'
p972
aS'domain names, landing pages, pages viewed,'
p973
aS'past transactions'
p974
aS"the Library 's site"
p975
aS'The ads you clicked on How long you visited our sites'
p976
aS'visits, content'
p977
aS'length of visits to certain pages, page interaction information -LRB- such as scrolling, clicks, and mouse-overs -RRB-, and methods used to browse away from the page'
p978
aS'other actions taken in connection with our sites and Services'
p979
aS'online viewing behavior data'
p980
aS'our email messages, such as the links you click on and whether you open or forward a message, the date and time of these interactions'
p981
aS'ustomers'
p982
aS'our communications services'
p983
aS'statistics'
p984
aS'times they have viewed an ad'
p985
aS'ads for electronics'
p986
aS'files'
p987
aS'software including your IP address, geolocation, browser and operating system type, domain names, access times'
p988
aS'pages people visit on our sites'
p989
aS'example, whether via a particular advertisement for the App'
p990
aS"our Parent Companies '"
p991
aS'the Sites and/or the Services that you use, and when and how long you use them'
p992
aS'the links you click'
p993
aS'us'
p994
aS'usage information'
p995
aS'etc.'
p996
aS'number of clicks'
p997
aS'images'
p998
aS'request to access -LRB- i.e., visit -RRB- a web page or app'
p999
aS'about your interaction with our Site, such as type of pages viewed and categories of interest, from our Site with these service providers for their use in displaying ads on our Site .'
p1000
aS'These'
p1001
aS'the number of clicks'
p1002
aS'time users'
p1003
aS'any information about visitors'
p1004
aS'users'
p1005
aS'the Web beacon'
p1006
aS'visits'
p1007
aS'your interaction with the Web site'
p1008
aS'subject of advertisements'
p1009
aS'log file information, including your web request'
p1010
aS'other third party sites'
p1011
aS'other sites following your visit to one of our Sites or apps'
p1012
aS'mobile services'
p1013
aS'page views'
p1014
aS'Time'
p1015
aS'additional traffic data such as time of access, date of access, software crash reports, session identification number,'
p1016
aS"information about user visits, such as the user 's anonymous cookie ID, page visits and duration, and the specific ad or link -LRB- s -RRB- that the user clicked on to visit the site ."
p1017
aS'details of your visits to our site'
p1018
aS'a website that uses our advertising services, or view'
p1019
aS'the Sites and time'
p1020
aS'clickstream'
p1021
aS"computer 's"
p1022
aS'images, photos, videos, or other content'
p1023
aS'your session'
p1024
aS'the page on which the pixel tag appears ; the time -LRB- and length of time -RRB- the page containing the pixel tag'
p1025
aS'the site -LRB- s -RRB-, application -LRB- s -RRB-, destination -LRB- s -RRB-'
p1026
aS'confirmation'
p1027
aS'the Sites and the Internet'
p1028
aS'email address'
p1029
aS"Advertisers '"
p1030
aS'Site visitors access'
p1031
aS'categories'
p1032
aS'f'
p1033
aS'mobile or other device'
p1034
aS'user name'
p1035
aS'click-through links, emails, and ads'
p1036
aS'participating websites'
p1037
aS'users of the NYT Services, and their subscribing and purchasing patterns,'
p1038
aS'track user?s movement in the aggregate'
p1039
aS'date and time'
p1040
aS'Your interests'
p1041
aS'access'
p1042
aS'our Sites where these widgets are placed'
p1043
aS'your visits to the Site and other websites you have visited'
p1044
aS'terms used to come to the site and while on the site'
p1045
aS'a description'
p1046
aS'online advertisements'
p1047
aS'content and advertisements you view and links you'
p1048
aS'the web pages you visit, add-ons,'
p1049
aS'data and additional Other Information'
p1050
aS'browsing activities over time and across other sites following your visit to one of our Sites or apps'
p1051
aS"users ' visit to this site, such as number of times they have viewed an ad"
p1052
aS'the websites'
p1053
aS'products'
p1054
aS'the last web page'
p1055
aS'a referring websites, the path you take through our websites, and other information'
p1056
aS'Other navigation data, such as web sites'
p1057
aS'add-ons'
p1058
aS'ads viewed, the site -LRB- s -RRB-, application -LRB- s -RRB-, destination -LRB- s -RRB-'
p1059
aS'private'
p1060
aS'other things'
p1061
aS'social media'
p1062
aS'use'
p1063
aS'use of the services'
p1064
aS'links'
p1065
aS'next'
p1066
aS'any information regarding the products you'
p1067
aS'this traffi'
p1068
aS"stream ''"
p1069
aS'the content you view, the search queries you submit,'
p1070
aS'any submissions'
p1071
aS'some of our business partners, including information about your use of financial products and services that we offer'
p1072
aS'browsing patterns of our users'
p1073
aS'the source of the download of the App -LRB- for example, whether via a particular advertisement for the App -RRB-'
p1074
aS'a message'
p1075
aS'your use'
p1076
aS'The URL of the last web page you visited before coming to one of our sites The words you have looked up and results you selected The ads you clicked on How long you visited our sites or used our apps and which services and features you used For app users, the online or offline status of Your app'
p1077
aS'links on the Service'
p1078
aS'e.g. how visitors use the site, general demographic attributes of visitors, usage patterns on various parts of our site, etc. .'
p1079
aS'this'
p1080
aS'your online viewing behavior'
p1081
aS'something'
p1082
aS'a particular visitor'
p1083
aS'e.g.'
p1084
aS'pieces'
p1085
aS'referring/exit pages, platform type, date/time stamp, and number'
p1086
aS'site visitors -LRB- e.g. how visitors use the site, general demographic attributes of visitors, usage patterns on various parts of our site, etc.'
p1087
aS'your online behavior and your computer'
p1088
aS'Usage informationsuch'
p1089
aS'log analysis'
p1090
aS'different websites and other online services'
p1091
aS'AOL Instant Messenger'
p1092
aS'the advertisements within the content you have been shown or may have clicked on, etc'
p1093
aS'the download of the App -LRB- for example, whether via a particular advertisement for the App -RRB-, when the App is launched, how many times a particular page within the Site is visited, which features the users'
p1094
aS'our Sites, search engine referrals'
p1095
aS'your return visits'
p1096
aS'the content you view'
p1097
aS'Information about your interactions with the websites, apps, and other services you use'
p1098
aS'menus, any specific information'
p1099
aS'a favorite'
p1100
aS'our emails and our site'
p1101
aS'the Web page -LRB- s -RRB- that you access during your visit'
p1102
aS'Tracking Technologies'
p1103
aS'certain of your activities'
p1104
aS'your interaction'
p1105
aS'this Service and other sites, applications, destinations, and services'
p1106
aS"The Internet Protocol address of your Internet provider 's gateway"
p1107
aS'the site'
p1108
aS'ads viewed'
p1109
aS'the Services you use, the time and duration of your use of the Services and other information about your interaction with content offered through a Service'
p1110
aS'destination -LRB- s -RRB-'
p1111
aS'shopping cart'
p1112
aS'your activity online'
p1113
aS'ervices comments'
p1114
aS'certain aspects of site visitors -LRB- e.g. how visitors use the site, general demographic attributes of visitors, usage patterns on various parts of our site, etc.'
p1115
aS'Web pages'
p1116
aS'connection with the Site and user activity ;'
p1117
aS'data marked as a favorite'
p1118
aS"a user 's cookie number, time and date of a page view, and description of the page"
p1119
aS'the application'
p1120
aS'articles'
p1121
aS'the date and time'
p1122
aS'nformation about your online activities over time and across different websites and other online services .'
p1123
aS'information about your activity online'
p1124
aS'those services'
p1125
aS'Files/listings'
p1126
aS'websites, the path you take through our websites'
p1127
aS'online activity'
p1128
aS'our Sites or apps'
p1129
aS'and exit pages and URLs, platform type, the number of clicks, domain names, landing pages'
p1130
aS'interests and behavior'
p1131
aS'connection with the Site and user activity'
p1132
aS'your visit to the Site'
p1133
aS'our sites, from which domains our visitors reach our sites'
p1134
aS'our'
p1135
aS'the time and date'
p1136
aS'the links you click on and whether you open or forward a message, the date and time of these interactions'
p1137
aS'our advertising services'
p1138
aS'our online services, and interactions'
p1139
aS'the search queries you submit'
p1140
aS'pages you view, the links you click'
p1141
aS'interactions'
p1142
aS"information about subscribers ' use"
p1143
aS'information about how you navigate within our Service .'
p1144
aS'the online or offline status'
p1145
aS'a website that uses our advertising services'
p1146
aS'interaction'
p1147
aS'search activities'
p1148
aS'searches or user-defined preferences, or data marked as a favorite'
p1149
aS'those ads'
p1150
aS'times'
p1151
aS'length'
p1152
aS'other personal information'
p1153
aS'e.g., click stream information, browser type, time and date'
p1154
aS'your browsing history'
p1155
aS'apps'
p1156
aS'the server your computer is logged onto,'
p1157
aS'The URL of the last web page you visited before coming to one of our sites'
p1158
aS'a visitor answered any questions'
p1159
aS'destinations'
p1160
aS'our service'
p1161
aS'website addresses'
p1162
aS'they'
p1163
aS'system'
p1164
aS'methods used to browse away from the page'
p1165
aS"users ' visit"
p1166
aS'the usage of the Site'
p1167
aS'this site'
p1168
aS'other usage information'
p1169
aS'the number of visits to the site, the pages'
p1170
aS'session identification number'
p1171
aS'your activity'
p1172
aS'the type of content'
p1173
aS'the name'
p1174
aS'information about your browsing on pages of our Sites'
p1175
aS'not including your name, address, email address or telephone number'
p1176
aS'Information'
p1177
aS"your visits to the Site 's webpages"
p1178
aS'our website'
p1179
aS'the Services you use'
p1180
aS'multiple sites'
p1181
aS'a website'
p1182
aS'rowser types, Internet Service Provider -LRB- ISP -RRB-, referring/exit pages,'
p1183
aS'the full Uniform Resource Locator clickstream'
p1184
aS'date, subject of advertisements clicked or scrolled over -RRB-'
p1185
aS'the amount of time spent on particular pages, the date and time you used the Services, and other similar information'
p1186
aS'you and your use'
p1187
aS'which'
p1188
aS'use information -LRB- not including your name, address, email address or telephone number -RRB- about your visits to this and other Web sites'
p1189
aS'information regarding how you use our site -LRB- s -RRB-, the areas of our site that you visit, what services you access, and information about your computer hardware and software including your IP address, geolocation, browser and operating system type, domain names, access times and referring Web site addresses'
p1190
aS'date/time stamp'
p1191
aS'time and date'
p1192
aS'the ways in which you interact with the Services, such as : referring and exit pages and URLs, platform type, the number of clicks, domain names, landing pages, pages viewed'
p1193
aS'your transactions with us and with some of our business partners, including information about your use of financial products and services that we offer'
p1194
aS'The information'
p1195
aS'Internet Service Provider -LRB- ISP -RRB-'
p1196
aS'the webpages viewed, whether you open, forward, or click-through links, emails, and ads'
p1197
aS'information about your use of the NYT Services .'
p1198
aS'the ad'
p1199
aS'a confirmation when you open email from us'
p1200
aS"the user 's anonymous cookie ID, page visits and duration, and the specific ad or link -LRB- s -RRB- that the user clicked on to visit the site"
p1201
aS'certain pages'
p1202
aS'you access'
p1203
aS'your relationship with us'
p1204
aS'our Website, the URL of the website you visit after leaving our Website'
p1205
aS'the Services, such'
p1206
aS'purchase history ; the full Uniform Resource Locator clickstream to, on and from our Services, including date and time ; and products you viewed or searched .'
p1207
aS'user-posted content'
p1208
aS'our toll-free number'
p1209
aS'the path'
p1210
aS'the internet address'
p1211
aS'a video'
p1212
aS'the Web search features'
p1213
aS'count'
p1214
aS'information about the Services you use'
p1215
aS'your online activities .'
p1216
aS'general terms'
p1217
aS'track user?s'
p1218
aS'scrolling'
p1219
aS'areas'
p1220
aS'domain names, landing pages, pages viewed, and other such information'
p1221
aS'browsing patterns'
p1222
aS'the Social Network'
p1223
aS'view'
p1224
aS'exit pages and URLs, platform type, the number of clicks, domain names,'
p1225
aS'the NYT Services'
p1226
aS'the links you click on and whether you open or forward a message, the date and time of these interactions and the device'
p1227
aS'advertisers in general terms'
p1228
aS'online behavior or your relationship with us .'
p1229
aS'ate/time stamp, IP address, pages visited, time of visits, content viewed, ads viewed, the site -LRB- s -RRB-, application -LRB- s -RRB-, destination -LRB- s -RRB-, and/or service -LRB- s -RRB- you arrived from, and other clickstream data .'
p1230
aS'The words you have looked up'
p1231
aS'other Web sites'
p1232
aS'purchase behavior'
p1233
aS'the phone number you used to call our toll-free number'
p1234
aS'information about the advertisements within the content you have been shown or may have clicked on, etc'
p1235
aS'website usage information'
p1236
aS'participating websites and mobile services'
p1237
aS"These Tracking Technologies collect `` click stream '' data and additional Other Information"
p1238
aS'email'
p1239
aS'a history'
p1240
aS'ability'
p1241
aS'your Service usage information'
p1242
aS"`` xcompany.com '' if you use a private Internet access account"
p1243
aS'our site, from which other sites subscribers came,'
p1244
aS'your purchases and other activity'
p1245
aS'information about your browsing on pages of our Sites where these widgets are placed .'
p1246
aS'social media and shopping behavior .'
p1247
aS'web sites'
p1248
aS'responses to advertisements and promotions on the Sites and on sites and apps where we advertise'
p1249
aS"`` yourschool.edu '' if you are connecting from a university 's domain"
p1250
aS'etc'
p1251
aS'the pages'
p1252
aS'the information you request ; and Search terms used to get to our website from an external search engine and terms'
p1253
aS"subscribers '"
p1254
aS'particular pages'
p1255
aS'any response'
p1256
aS'other websites you have visited'
p1257
aS'your visits to the Site and other websites'
p1258
aS'the time'
p1259
aS'other websites'
p1260
aS'ate/time stamp'
p1261
aS'the order of those pages, the amount of time spent on particular pages, the date and time you used the Services, and other similar information'
p1262
aS'confirmation when you open email from us'
p1263
aS'online activities'
p1264
aS'this site, such as number of times they have viewed an ad'
p1265
aS'your interactions with our email messages, such as the links you click on and whether you open or forward a message, the date and time of these interactions and the device'
p1266
aS'terms you enter using our Services or on a referral site'
p1267
aS'the pages you visit and files you download, The Internet address of the website from which you linked directly to our site'
p1268
aS'the information'
p1269
aS'other users'
p1270
aS'the traffic to their websites and apps .'
p1271
aS'pages you view, the links you click and other actions taken in connection with our sites and Services'
p1272
aS'page-view information from some merchants'
p1273
aS'websites and mobile services'
p1274
aS'our Website'
p1275
aS'choices'
p1276
aS'pages viewed on our Sites, search engine referrals'
p1277
aS'blogs, discussion forums, or other community posting or social networking areas of our Site'
p1278
aS'site activity'
p1279
aS'The URL of the last web page you visited before coming to one of our sites The words you have looked up and results you selected The ads you clicked on How long you visited our sites or used our apps and which services and features you used For app users, the online or offline status'
p1280
aS'your web request'
p1281
aS'private online communications'
p1282
aS'information about the Services you use, the time and duration of your use of the Services and other information about your interaction with content offered through a Service'
p1283
aS'the pages you access'
p1284
aS'the events'
p1285
aS'your visits to the Site'
p1286
aS'a particular advertisement for the App'
p1287
aS'The Internet'
p1288
aS'the App, aggregated usage, performance data,'
p1289
aS'purchase history, which we may aggregate with similar information from other customers ; the full Uniform Resource Locator -LRB- URL -RRB- clickstream to, through, and from our Websites, including date and time'
p1290
aS'statistical information'
p1291
aS'User Content'
p1292
aS'web pages'
p1293
aS"the Library 's"
p1294
aS'i'
p1295
aS'patterns'
p1296
aS'this Service'
p1297
aS"users '"
p1298
aS'The pages'
p1299
aS'rooms'
p1300
aS'web'
p1301
aS'the ways in which you interact with the Services'
p1302
aS'a description of the page on which the Web beacon resides'
p1303
aS'YouTube'
p1304
aS'individual visits'
p1305
aS'usage'
p1306
aS"your Internet provider 's"
p1307
aS'our video or audio content'
p1308
aS"your visits to the Site, such as your visits to the Site 's webpages, use of our features, and purchasing history or preferences"
p1309
aS'the app, the source of the download of the App -LRB- for example, whether via a particular advertisement for the App -RRB-, when the App is launched'
p1310
aS'aggregate only'
p1311
aS'the specific ad or link'
p1312
aS'aggregated usage'
p1313
aS'you'
p1314
aS'the page'
p1315
aS"Uniform Resource Locator -LRB- `` URL '' -RRB-"
p1316
aS"data and additional Other Information regarding your visits to the Site, such as your visits to the Site 's webpages, use of our features, and purchasing history or preferences"
p1317
aS'information about site users and site activity'
p1318
aS'the internet'
p1319
aS'our websites and mobile services'
p1320
aS'various parts of our site'
p1321
aS'the advertisements'
p1322
aS'visits to the Site'
p1323
aS'your offline and online behavior'
p1324
aS'these service providers for their use'
p1325
aS'weblogs'
p1326
aS'a Premium or Basic member'
p1327
aS'the pages you see'
p1328
aS'time of visits, content viewed, ads viewed, the site -LRB- s -RRB-, application -LRB- s -RRB-, destination -LRB- s -RRB-, and/or service -LRB- s -RRB- you arrived from, and other clickstream data'
p1329
aS'other sites'
p1330
aS'the order'
p1331
aS'online Site behavior'
p1332
aS'their websites and apps'
p1333
aS'your Services comments or the videos'
p1334
aS'visits to certain pages, page interaction information -LRB- such as scrolling, clicks, and mouse-overs -RRB-, and methods used to browse away from the page'
p1335
aS'Usage Data'
p1336
aS'etc. .'
p1337
aS'software'
p1338
aS'the events that occur within the App, aggregated usage, performance data,'
p1339
aS'blogs, discussion forums, or other community posting'
p1340
aS'the beacon'
p1341
aS'blogs, discussion forums or other community posting and social networking areas on our Site,'
p1342
aS'some searches'
p1343
aS'Non-personally identifiable information'
p1344
aS'a comment on our Facebook page'
p1345
aS'purchasing history'
p1346
aS'visits to the site, the pages'
p1347
aS'time and date,'
p1348
aS'number of page visits'
p1349
aS'service -LRB- s -RRB- you arrived from'
p1350
aS'our site -LRB- s -RRB-, the areas of our site'
p1351
aS'each page visit'
p1352
aS"the domain from which you access the Internet, The Internet Protocol address of your Internet provider 's gateway, or in some cases, the computer you are using, The date and time you access the Library 's site, The URL of the pages you visit and files you download, The Internet address of the website from which you linked directly to our site, Characteristics of your system, and Search terms used to come to the site and while on the site -LRB- in aggregate only -RRB-"
p1353
aS'our Services, such as,'
p1354
aS'The pages you visit'
p1355
aS'your search terms and search results'
p1356
aS'rious statistical data such as which pages you visit on our Websites, how long you stay on them, and what you click .'
p1357
aS'he'
p1358
aS"your Internet provider 's gateway"
p1359
aS'the Site and user activity'
p1360
aS'operating system'
p1361
aS'your use of the services'
p1362
aS'type of pages viewed'
p1363
aS'offers and advertisements'
p1364
aS'activities on this website'
p1365
aS'the App -LRB- for example, whether via a particular advertisement for the App -RRB-, when the App is launched, how many times a particular page within the Site is visited, which features the users'
p1366
aS'the web site'
p1367
aS'other similar information'
p1368
aS'this and other websites'
p1369
aS'other'
p1370
aS'details'
p1371
aS'webpages, products and services users'
p1372
aS'our business partners'
p1373
aS'clicks'
p1374
aS'your transactions'
p1375
aS'page-view information'
p1376
aS'message boards, forums'
p1377
aS'particular content'
p1378
aS'any response of set of responses to the survey'
p1379
aS'searches'
p1380
aS'the searches'
p1381
aS'the website from which you linked directly to our site,'
p1382
aS'blogs'
p1383
aS'domains our visitors'
p1384
aS'the Web page you came from, the URL you go to next, and the Web page -LRB- s -RRB- that you access during your visit'
p1385
a.