(lp0
S'a problem'
p1
aS"both email addresses as well as the child 's first name"
p2
aS'your name, home address'
p3
aS'updated delivery and address information from our carriers or other third parties,'
p4
aS'their name and e-mail address'
p5
aS"your friend 's and your first name and e-mail"
p6
aS'our name, e-mail address'
p7
aS'contact information such as your name, address, and email address'
p8
aS'ame, email address, postal address, phone number'
p9
aS'names, e-mail and website addresses ; we may also ask you for information for other purposes, for example when you report a problem with our site ;'
p10
aS'telemarketing'
p11
aS'updated delivery'
p12
aS'name, email address, physical or postal address, phone number'
p13
aS'name, address, phone number and email'
p14
aS'name, email address, home address and/or phone number'
p15
aS'your mobile phone number,'
p16
aS'i.e. information that could be used to contact you'
p17
aS'other wireless devices such as mobile phones'
p18
aS'personally identifiable information such as your name, address, phone number, and e-mail address'
p19
aS'your name, age, email address, mailing address and phone number .'
p20
aS'fax'
p21
aS'email address'
p22
aS'contact information -LRB- such as name and shipping address -RRB-,'
p23
aS'marketing materials'
p24
aS'a databas'
p25
aS'email address, name, postal address, and phone number .'
p26
aS'birth year'
p27
aS'name, address, telephone number, email address,'
p28
aS'name, address, e-mail address, telephone number'
p29
aS'your name, telephone number -LRB- s -RRB-, email and/or street address'
p30
aS'full name'
p31
aS"user 's telephone number or a wireless email address"
p32
aS'a service'
p33
aS'school'
p34
aS'e.g., your name and e-mail address'
p35
aS'gender'
p36
aS'shipping address'
p37
aS'list'
p38
aS'information that can be used to identify you, or any other individual to whom the information may relate, personally'
p39
aS'address, phone number, email, birth date, gender or zip code/postal code'
p40
aS'phone number and email address -RRB-'
p41
aS'contact data'
p42
aS'number you used to call our 800 number'
p43
aS'your first'
p44
aS'an Internet'
p45
aS'names, e-mail and website addresses'
p46
aS'residence, ZIP code,'
p47
aS'personal postal'
p48
aS'street'
p49
aS'booth'
p50
aS'information that would allow someone to identify you or contact you, such as your full name, postal address, e-mail address or telephone number'
p51
aS'telephone number and e-mail address'
p52
aS'city, state and zip code'
p53
aS'cell'
p54
aS'name, mailing and/or e-mail address'
p55
aS'telephone number, e-mail address, billing address'
p56
aS'your name, address, email'
p57
aS'postal address, phone number and email address -RRB-,'
p58
aS'your name, postal address, email address, phone number'
p59
aS'your name, address, phone number, and e-mail address'
p60
aS'the email address'
p61
aS'Contact'
p62
aS'a problem with our site'
p63
aS'address'
p64
aS'a wireless telephone number'
p65
aS'your first name and e-mail'
p66
aS'zip code/postal code'
p67
aS'name, username, password, email address, postal address'
p68
aS'booth including name, address, phone number and email address'
p69
aS'zip code'
p70
aS'contacts, friends or followers'
p71
aS'email newsletter'
p72
aS"the friend 's"
p73
aS'contact or identify you'
p74
aS'An e-mail address'
p75
aS'addresses'
p76
aS'contact customers'
p77
aS'your name, postal address, email address, user name and password'
p78
aS'email addresses'
p79
aS'SMS'
p80
aS'address and telephone number'
p81
aS'names'
p82
aS'name, address, telephone number, e-mail address,'
p83
aS'other wireless devices'
p84
aS'mailing address'
p85
aS'your name, postal address'
p86
aS"friend 's name and email address"
p87
aS'a competition or sweepstake offered through the online services'
p88
aS'residence or prize winnings'
p89
aS'your email address and username'
p90
aS'other information'
p91
aS'wireless telephone number, wireless or conventional Internet email address,'
p92
aS'list of contacts, friends or followers'
p93
aS'contact information -LRB- where that information has been lawfully disclosed to us -RRB-'
p94
aS', postal address, email address and telephone number'
p95
aS'customer contact information'
p96
aS'name,'
p97
aS'name, email address, phone number and mailing address'
p98
aS'information that can be used to identify you'
p99
aS'phone'
p100
aS'personally identifiable information'
p101
aS'example when you report a problem with our site'
p102
aS'telephone number and e-mail address,'
p103
aS'behalf'
p104
aS'customer'
p105
aS'name, telephone number -LRB- s -RRB-, email and/or street address,'
p106
aS'name, address, email'
p107
aS'other purposes'
p108
aS'name, email'
p109
aS'example'
p110
aS'a unique email'
p111
aS'purchases'
p112
aS'e.g.'
p113
aS'newsletters'
p114
aS'date of birth and zip code'
p115
aS'-LRB- 2 -RRB- the e-mail addresses of visitors that communicate with SRL via e-mail,'
p116
aS'address, phone number'
p117
aS"your friend 's"
p118
aS'birth, gender, street address, job title and industry and related information'
p119
aS'e-mail and website addresses'
p120
aS'return e-mail addresses'
p121
aS'our company or other businesses'
p122
aS'information'
p123
aS'Contact You'
p124
aS'electronic communications'
p125
aS'a product or service'
p126
aS'an online service'
p127
aS'login and password information'
p128
aS'name or email address'
p129
aS"the friend 's name and email"
p130
aS'the contact information'
p131
aS'birthday'
p132
aS'email, phone or mail'
p133
aS'date'
p134
aS'physical or postal address'
p135
aS'response'
p136
aS'other third parties'
p137
aS'The information collected typically'
p138
aS'username, password, email address, postal address, phone number, mobile phone number'
p139
aS'-LRB- i.e.'
p140
aS'last name'
p141
aS'phone number information'
p142
aS'e-mail address or telephone number'
p143
aS'name, address,'
p144
aS'your e-mail address'
p145
aS'home address and/or phone number'
p146
aS'other people'
p147
aS"addresses as well as the child 's first name"
p148
aS'your name, home address, age, gender, telephone number, e-mail address'
p149
aS'your name'
p150
aS"the customer 's"
p151
aS'other businesses'
p152
aS'information -LRB- such as name and shipping address -RRB-,'
p153
aS'your age, location or delivery address if you choose to enter a competition or sweepstake offered through the online services'
p154
aS'street address'
p155
aS'-LRB- 2 -RRB- the e-mail addresses of visitors'
p156
aS', name, address'
p157
aS'the e-mail address'
p158
aS'email and postal'
p159
aS'updated delivery and address information'
p160
aS'someone'
p161
aS'A user'
p162
aS'your name, email address, home address and/or phone number .'
p163
aS'name, home address'
p164
aS'their email address'
p165
aS'name, address, phone number, email, birth date, gender or zip code/postal code .'
p166
aS'Latin Post'
p167
aS'not'
p168
aS'name, address, phone number'
p169
aS'Street address, Telephone number -LRB- s -RRB-,'
p170
aS'contact information -LRB- such as name, email, and shipping address -RRB-'
p171
aS'name'
p172
aS'ame and contact information'
p173
aS'city of residence'
p174
aS'your name, email address, or school'
p175
aS'e-mail addresses'
p176
aS"your friend 's and your first name and e-mail addresses"
p177
aS'personal information'
p178
aS'your contact information'
p179
aS'your name, address, and email address'
p180
aS'birth and zip code'
p181
aS'name, age, email address, mailing address and phone number'
p182
aS'name, birth year, telephone number and e-mail address,'
p183
aS'phone number and email address'
p184
aS'a wireless email'
p185
aS'postal and e-mail addresses'
p186
aS'your name, email address, telephone number'
p187
aS'other Information'
p188
aS'our'
p189
aS'user name'
p190
aS'mobile phone number'
p191
aS"the child 's first name"
p192
aS'e-mail address and username'
p193
aS"the customer 's name"
p194
aS'mobile numbers'
p195
aS'Telephone number'
p196
aS'your name, postal address, email address'
p197
aS"recipient 's name"
p198
aS'ame, email address, home address'
p199
aS'your first and last name, street address, city, state and zip code, email address, telephone number and date of birth .'
p200
aS'their name'
p201
aS'postal or email addresses'
p202
aS', postal address'
p203
aS'people to whom purchases have been shipped, including addresses and phone number'
p204
aS'when you provide your name, contact information'
p205
aS'zip code and telephone number'
p206
aS'-LRB- 2 -RRB- the e-mail addresses of visitors that communicate with SRL'
p207
aS'certain Personal Information -LRB- e.g., your name and e-mail address'
p208
aS'messages'
p209
aS'ur name, address,'
p210
aS'address, telephone number, e-mail address'
p211
aS'contact lists'
p212
aS'other personal information'
p213
aS'email address,'
p214
aS'our contact information'
p215
aS'personal information -LRB- i.e. information that could be used to contact you, such as full name, postal address, phone number and email address -RRB-,'
p216
aS'number'
p217
aS'contacts list -LRB-'
p218
aS'one'
p219
aS'contacts list'
p220
aS'username and password'
p221
aS'such'
p222
aS'name, email address, birth date'
p223
aS'email address and username'
p224
aS'city'
p225
aS'this information to communicate with you,'
p226
aS'street address, city, state and zip code, email address, telephone number and date of birth'
p227
aS'postal and phone number information'
p228
aS'your name, email address, billing address, shipping address, telephone number, fax number'
p229
aS'Telephone number -LRB- s -RRB-'
p230
aS'our site'
p231
aS'your name, email address, mailing address,'
p232
aS'address, city, state and zip code, email address, telephone number'
p233
aS'a'
p234
aS'newsletters or promotional email'
p235
aS'your first name, last name, gender, birth date and email'
p236
aS'home address'
p237
aS'contact information -LRB- such as name and shipping address -RRB-'
p238
aS'name, mailing and/or e-mail'
p239
aS'wireless telephone number'
p240
aS'phone numbers'
p241
aS'its wireless marketing services'
p242
aS'a wireless telephone number, wireless or conventional Internet email address, or other Information submitted for its wireless marketing services'
p243
aS'Contact/Registration information : for example, your telephone number or e-mail address, where you have subscribed to a service such as program updates'
p244
aS"customer 's"
p245
aS'the name'
p246
aS'Personal Information'
p247
aS'your first and last name'
p248
aS'It'
p249
aS'your name, postal address, email address, phone number, or other information'
p250
aS'your name, birthday, email address, city of residence, ZIP code'
p251
aS'address, telephone number, email address,'
p252
aS'direct mai'
p253
aS'e-mail or SMS'
p254
aS'unique email address'
p255
aS'a telephone number'
p256
aS'name, address, gender, e-mail address, telephone number, fax number'
p257
aS'electronic means -LRB- e-mail or SMS'
p258
aS'job title and industry'
p259
aS'your name, telephone number -LRB- s -RRB-, email and/or street address,'
p260
aS'e-mail address ; password ;'
p261
aS'name, contact information'
p262
aS'phone number'
p263
aS'your name and e-mail address'
p264
aS'visitors'
p265
aS'email messages'
p266
aS'communication data'
p267
aS'your full name'
p268
aS'The information'
p269
aS'but not limited to name, email address, and age'
p270
aS'first name'
p271
aS'information -LRB- such as their email address'
p272
aS'other Information submitted for its wireless marketing services'
p273
aS'your full name, postal address, e-mail address or telephone number'
p274
aS'the email addresses'
p275
aS'text messages'
p276
aS'your cell phone'
p277
aS', name'
p278
aS'Street address'
p279
aS'address information'
p280
aS'name and email address'
p281
aS'We'
p282
aS'E-mail, postal mail, and telemarketing'
p283
aS'names, e-mail and website addresses ; we may also ask you for information for other purposes, for example when you report a problem with our site'
p284
aS'your telephone number'
p285
aS'information by which you may be personally identified, such as your name, email address, or school'
p286
aS'name, e-mail address, year of birth,'
p287
aS'those communications'
p288
aS'email and/or street address'
p289
aS'full name, postal address, phone number and email address -RRB-,'
p290
aS'full name, postal address, phone number and email address -RRB-'
p291
aS'name, address, e-mail address'
p292
aS'the Support, Renewal, and Purchase of our'
p293
aS'emails'
p294
aS'Contact/Registration information : for example, your telephone number or e-mail address, where you have subscribed to a service such as program updates ; name, age, gender or interests when you register for an account on one of our online services ; delivery address where you are buying a product or service through an online service ; or your age, location or delivery address if you choose to enter a competition or sweepstake offered through the online services'
p295
aS'your name, email addresses, address, and telephone number'
p296
aS'personally identifiable information that may be collected about other people at these pages'
p297
aS'name, city'
p298
aS'personal postal and phone number information'
p299
aS'your mobile or other device'
p300
aS'an Internet email address'
p301
aS'your contacts'
p302
aS'ZIP code'
p303
aS'number -LRB- s -RRB-, email and/or street address'
p304
aS'name, address, and e-mail addresses'
p305
aS'your telephone number, e-mail address'
p306
aS'postal address'
p307
aS'the e-mail addresses'
p308
aS'your first name'
p309
aS'name, age, gender or interests'
p310
aS'name, city of residence or prize winnings'
p311
aS'postal mail,'
p312
aS'username and password ;'
p313
aS'email'
p314
aS'name, email addresses'
p315
aS'we'
p316
aS'our 800 number'
p317
aS'any other individual to whom the information may relate, personally'
p318
aS'address, city, state and zip code'
p319
aS'wireless or conventional Internet email address'
p320
aS'an account'
p321
aS'your name, address, and phone numbers'
p322
aS'Full'
p323
aS'certain information like your e-mail address'
p324
aS'mobile phone number,'
p325
aS'year of birth, gender, street address, job title and industry and related information'
p326
aS'name, contact information,'
p327
aS'Contact/Registration information'
p328
aS'residence'
p329
aS'Screen name E-mail address'
p330
aS'your first and last name, street'
p331
aS'email addresses, address, and telephone number'
p332
aS'requests'
p333
aS'address, shipping address, phone number, email address'
p334
aS'city of residence, ZIP code,'
p335
aS'name, email address, physical or postal address, phone number,'
p336
aS'e-mail address'
p337
aS'cell phone number'
p338
aS'name, email address, phone, shipping address'
p339
aS'last name, picture, phone number'
p340
aS'personal information -LRB- i.e. information that could be used to contact you,'
p341
aS'names, e-mail'
p342
aS'telephone number, e-mail address'
p343
aS"recipient 's name, address, e-mail address and telephone number"
p344
aS'name, email address, billing address, shipping address, telephone number, fax number'
p345
aS'addresses, mobile phone numbers'
p346
aS'i.e.'
p347
aS'an email'
p348
aS'addition'
p349
aS'date of birth'
p350
aS'name, zip code and telephone number'
p351
aS'username'
p352
aS'a service such as program updates'
p353
aS'the information'
p354
aS'fax number'
p355
aS'telephone number'
p356
aS'delivery address where you are buying a product or service through an online service'
p357
aS'SRL'
p358
aS'first name, e-mail address,'
p359
aS'the Support, Renewal, and Purchase'
p360
aS'ur name'
p361
aS'contact information -LRB- such as name and email address -RRB-'
p362
aS'email address, phone number and mailing address'
p363
aS'Telephone number -LRB- s -RRB-, Birth date'
p364
aS'the email'
p365
aS'name, address, phone number and email address'
p366
aS'telephone number -LRB- s -RRB-, email and/or street address'
p367
aS'Products and Services'
p368
aS'Identifiable Information'
p369
aS'the Contact Us form'
p370
aS'contact information -LRB- like their name and e-mail address -RRB-'
p371
aS"user 's telephone number"
p372
aS'one of our online services'
p373
aS'name and shipping address'
p374
aS'personal information -LRB- i.e. information that could be used to contact you, such as full name, postal address, phone number and email address -RRB-'
p375
aS'name, postal address, and phone number'
p376
aS'name, a'
p377
aS'your name and contact information'
p378
aS'password and e-mail address'
p379
aS'your email'
p380
aS'age, email address, mailing address and phone number'
p381
aS'telephone'
p382
aS'promotion or giveaway'
p383
aS'E-mail'
p384
aS'home address, etc.'
p385
aS'return'
p386
aS'the email address or other personal information'
p387
aS'text messaging and other wireless devices such as mobile phones'
p388
aS'addresses and phone number'
p389
aS'certain Personal Information'
p390
aS'Internet email address'
p391
aS'name, email, and shipping address'
p392
aS'name, address, e-mail address, telephone number,'
p393
aS"your friend 's name and email address"
p394
aS'e-mail address, telephone number'
p395
aS'Your username, password and e-mail address'
p396
aS'your name, e-mail address, year of birth, gender, street address, job title and industry and related information'
p397
aS'a competition or sweepstake'
p398
aS'your postal or e-mail address or telephone number'
p399
aS'Identifiable Information refers to information by which you may be personally identified, such as your name, email address, or school'
p400
aS'your first and last name, street address, city, state and zip code, email address, telephone number'
p401
aS'name, email address, home address, etc. or to answer questions'
p402
aS'electronic means'
p403
aS'both email'
p404
aS'phone or mail'
p405
aS'that information'
p406
aS'name, age, gender or interests when you register for an account on one of our online services'
p407
aS'names, postal and e-mail addresses, phone numbers, and other personal information'
p408
aS'your name, email address, or postal address'
p409
aS'contact'
p410
aS'name, email address, postal address, phone number'
p411
aS'our Websites'
p412
aS'email address, mailing address'
p413
aS'direct mailings'
p414
aS'commercial email list'
p415
aS'postal or e-mail address or telephone number,'
p416
aS'your email address,'
p417
aS'information for other purposes'
p418
aS'name, address'
p419
aS'name, address, phone number,'
p420
aS'contact or identify you, such as your name, email address, or postal address'
p421
aS'example, your telephone number or e-mail address'
p422
aS'behalf of our company or other businesses'
p423
aS'name, email address,'
p424
aS'questions'
p425
aS'Internet'
p426
aS'a confirmation notice and your mailing address'
p427
aS'addresses, mobile phone number'
p428
aS'these pages'
p429
aS'such as their email address'
p430
aS'postal'
p431
aS'program updates'
p432
aS'your telephone number or cell phone number'
p433
aS'phone number, email'
p434
aS'our online services'
p435
aS"the friend 's name"
p436
aS'number and e-mail address,'
p437
aS'email address, phone number'
p438
aS'contact or identify you, such as your name, email address, or postal address .'
p439
aS'ame'
p440
aS'name, email address, home address'
p441
aS'contact information'
p442
aS'birth'
p443
aS'password'
p444
aS'an account on one of our online services'
p445
aS'your name, email addresses, address, and telephone number .'
p446
aS'billing address'
p447
aS'mobile phone number o'
p448
aS'communications'
p449
aS'Your username'
p450
aS'our name'
p451
aS'your information'
p452
aS'name, address, gender, e-mail address'
p453
aS'certain information'
p454
aS'people'
p455
aS'contact customers by email, phone or mail'
p456
aS'your name, email address, home address and/or phone number'
p457
aS'your name, email address, phone number and mailing address .'
p458
aS'number for your mobile or other device'
p459
aS'name, postal or email addresses, telephone, fax or mobile numbers'
p460
aS'contact information -LRB- such as their email address'
p461
aS'name, Email address, Password'
p462
aS'any user registration'
p463
aS'e-mail'
p464
aS'telephone number, e-mail address,'
p465
aS'name, zip code and telephone number .'
p466
aS"customer 's name"
p467
aS'the online services'
p468
aS'name, address, email address, or phone number'
p469
aS'contact information such as name and email'
p470
aS'name, email address'
p471
aS'login name and password'
p472
aS'your name, address, telephone number, e-mail address'
p473
aS'Birth date'
p474
aS'a confirmation notice'
p475
aS'your name, email address'
p476
aS'email or postal mail,'
p477
aS'your email address'
p478
aS'name, address, and phone numbers'
p479
aS'delivery address'
p480
aS'name, email address, phone number,'
p481
aS'birth date'
p482
aS'login and password information ; email address ;'
p483
aS'your name, birthday, email address, city of residence, ZIP code,'
p484
aS'related information'
p485
aS'name, postal address, email address'
p486
aS'Street address, Telephone number -LRB- s -RRB-, Birth date,'
p487
aS'mobile phone'
p488
aS'our carriers or other third parties,'
p489
aS'name and email'
p490
aS'address, e-mail address'
p491
aS'your'
p492
aS'support'
p493
aS'contact information such as name and email address'
p494
aS'year of birth'
p495
aS'telephone number, email address'
p496
aS'name, address, telephone number, e-mail address'
p497
aS'any other individual'
p498
aS'your name, e-mail address'
p499
aS'your age, location or delivery address'
p500
aS'your postal'
p501
aS'wireless'
p502
aS"recipient 's"
p503
aS'ame, email address, or school'
p504
aS"user 's telephone number or a wireless email"
p505
aS'your name, email address,'
p506
aS'email and your email'
p507
aS'he'
p508
aS'your name, e-mail address,'
p509
aS'name, username, password, email address, postal address, phone number, mobile phone number,'
p510
aS'electronic means -LRB- e-mail or SMS -RRB-'
p511
aS'addition to your name and contact information'
p512
aS"`` Personal Information ''"
p513
aS'us'
p514
aS"the child 's"
p515
aS'your name, zip code,'
p516
aS'name, address, phone number, email,'
p517
aS'email address ; login name and password ;'
p518
aS'etc.'
p519
aS'ame, email address,'
p520
aS'information that could be used to contact you'
p521
aS"friend 's"
p522
aS'year'
p523
aS'these addresses'
p524
aS'e-mails'
p525
aS'a unique email address'
p526
aS'your mailing address'
p527
aS'e-mail address or telephone number,'
p528
aS'names, postal and e-mail addresses, phone numbers'
p529
aS'promotional email'
p530
aS'your name, address, phone number, and email address'
p531
aS'mobile phones'
p532
aS'physical or postal address, phone number'
p533
aS"your friend 's e-mail address"
p534
aS'you'
p535
aS'Password'
p536
aS'picture'
p537
aS'text messaging'
p538
aS'name, e-mail address'
p539
aS'email newsletter or commercial email list'
p540
aS'contact information -LRB- such as name, email, and shipping address'
p541
aS'e-mail,'
p542
aS'name, email address, physical or postal address, phone number, date of birth'
p543
aS'name, email address, or school'
p544
aS'postal mail'
p545
aS'name, email address, mailing address'
p546
aS'number o'
p547
aS'Addresses'
p548
aS'age'
p549
aS'contacts'
p550
aS"user 's"
p551
aS'name and contact information'
p552
aS'conventional Internet email address'
p553
aS'our carriers'
p554
a.