(lp0
S'direct mailings'
p1
aS'email information'
p2
aS'marketing offers'
p3
aS'text message to a designated telephone number'
p4
aS'visitor'
p5
aS'special offers'
p6
aS'a telephone number -LRB- or wireless email address'
p7
aS'any sharing'
p8
aS'the message'
p9
aS'name, email address,'
p10
aS'your name'
p11
aS'email or special offers'
p12
aS'name and email address'
p13
aS'telemarketing'
p14
aS'other news if a customer specifically grants us permission'
p15
aS'text message'
p16
aS'website users'
p17
aS'email newsletter'
p18
aS'full name'
p19
aS'email .'
p20
aS'offers'
p21
aS'our full name, the types of communications you would like to receive or not receive, and your related contact information .'
p22
aS'email and postal'
p23
aS'customer'
p24
aS'them'
p25
aS'email, postal mail'
p26
aS'email address'
p27
aS'advantage'
p28
aS'permission'
p29
aS'name, address, phone number, and e-mail address'
p30
aS'email or for other communications'
p31
aS'a customer'
p32
aS'name, address, e-mail address'
p33
aS'Latin Post'
p34
aS'contact information'
p35
aS'they'
p36
aS'postal'
p37
aS'emails'
p38
aS'any box'
p39
aS'any time'
p40
aS'the information you submit to contact you'
p41
aS'other companies'
p42
aS'name'
p43
aS'mail or telephone'
p44
aS'an offer'
p45
aS'our customer list'
p46
aS'communications'
p47
aS'promotional offers or other news if a customer specifically grants us permission'
p48
aS'any sharing of your email address'
p49
aS'traditional mail or other off-line promotions'
p50
aS'name, email address, and/or mailing address'
p51
aS'e-mail addresses'
p52
aS'other mail'
p53
aS'mailing lists'
p54
aS'a text message'
p55
aS'an offer, your name, email address'
p56
aS'your profile'
p57
aS'we'
p58
aS'emails and other communications'
p59
aS'a wireless email'
p60
aS"Latin Post at the time the message is sent, or by sending a text message that says `` STOP '', `` END '', `` CANCEL '', `` REMOVE '', `` UNSUBSCRIBE '' or `` QUIT ''"
p61
aS'email communications'
p62
aS'visitor e-mail addresses'
p63
aS'Cell Phone </strong> Caribou'
p64
aS"a text message that says `` STOP '', `` END '', `` CANCEL '', `` REMOVE '', `` UNSUBSCRIBE '' or `` QUIT"
p65
aS'e-mail marketing'
p66
aS"a user 's"
p67
aS'contacts'
p68
aS'e-mail'
p69
aS'updates or notifications'
p70
aS'email'
p71
aS'postal or e-mail address or telephone number'
p72
aS'one or more services via his or her wireless device at any time by using the unsubscribe mechanism'
p73
aS'the types of communications you would like to receive or not receive, and your related contact information'
p74
aS'mailings'
p75
aS'his or her wireless device at any time by using the unsubscribe mechanism'
p76
aS'for other communications'
p77
aS'address'
p78
aS'the unsubscribe mechanism'
p79
aS'this information'
p80
aS'choices about how your information may be used to provide marketing offers to you'
p81
aS'your name, email address'
p82
aS'your information'
p83
aS'promotional offers'
p84
aS'the optional email'
p85
aS"`` END ''"
p86
aS'messages'
p87
aS'wireless messages'
p88
aS'your email address'
p89
aS'E-mails'
p90
aS'communications you would like to receive or not receive'
p91
aS'our customers'
p92
aS'other off-line promotions'
p93
aS'your related contact information'
p94
aS"`` END '', `` CANCEL '', `` REMOVE '', `` UNSUBSCRIBE '' or `` QUIT"
p95
aS'designated wireless device'
p96
aS'communication'
p97
aS'his or her designated wireless device by submitting a telephone number -LRB- or wireless email address'
p98
aS'lists received from other companies'
p99
aS'other news'
p100
aS'any time by using the unsubscribe mechanism'
p101
aS'the time'
p102
aS"`` CANCEL '', `` REMOVE '', `` UNSUBSCRIBE '' or `` QUIT"
p103
aS'e-mails or other communications'
p104
aS'e-mail recipients'
p105
aS'text or email'
p106
aS'traditional mail'
p107
aS'email unsubscribe requests'
p108
aS'the types of communications you would like to receive or not receive'
p109
aS'his or her wireless device'
p110
aS'other editorial-based e-mails'
p111
aS'other communications'
p112
aS'full name, the types of communications you would like to receive or not receive, and your related contact information'
p113
aS'phone or mail'
p114
aS"a user 's telephone number"
p115
aS'one or more services'
p116
aS'first name and e-mail addresses'
p117
aS'future emails'
p118
aS'advantage of this opportunity'
p119
aS'special Promotions or offers'
p120
aS'e-mail or other mail'
p121
aS'name, address, e-mail address, telephone number'
p122
aS'QUIT'
p123
aS'E-mail'
p124
aS'specific newsletter'
p125
aS'our full name'
p126
aS'us'
p127
aS'choices'
p128
aS'the types'
p129
aS"a wireless email address, but only if specifically requested, and the carrier 's name"
p130
aS'future emails or text messages'
p131
aS"the carrier 's"
p132
aS'your email information'
p133
aS'e-mail address'
p134
aS'postal or e-mail address'
p135
aS'the information you submit to contact'
p136
aS'process'
p137
aS"a user 's telephone number or a wireless email address, but only if specifically requested, and the carrier 's name"
p138
aS'newsletters'
p139
aS'customers'
p140
aS'e-mails'
p141
aS'any or all newsletters'
p142
aS'name and postal address'
p143
aS'a designated telephone number'
p144
aS'unsubscribe requests'
p145
aS'this opportunity'
p146
aS'a telephone number'
p147
aS'telephone number'
p148
aS'any or all newsletters and other editorial-based e-mails'
p149
aS"`` UNSUBSCRIBE '' or `` QUIT"
p150
aS'you'
p151
aS'postal address'
p152
aS'name or email address'
p153
aS'name, email address, and/or mailing'
p154
aS'communication from us .'
p155
aS'phone number'
p156
aS'all contacts'
p157
aS'designated wireless device by submitting a telephone number -LRB- or wireless email address'
p158
aS'email messages'
p159
aS'email, phone or mail'
p160
aS'lists'
p161
aS'newsletters, email or special offers,'
p162
aS'address, but only if specifically requested'
p163
aS'postal mail'
p164
aS'customer mailing lists'
p165
aS'first name'
p166
aS'name and address'
p167
aS"the carrier 's name"
p168
aS'contact'
p169
aS'UNSUBSCRIBE'
p170
aS'text messages'
p171
aS'mailing'
p172
aS'text messages regarding promotional offers or other news if a customer specifically grants us permission'
p173
aS'the optional email address'
p174
a.