(lp0
S'a record'
p1
aS'e-mail address'
p2
aS'contact customers'
p3
aS'contact customers by email, phone or mail'
p4
aS"your friend 's"
p5
aS'telephone number, e-mail address'
p6
aS'postal address'
p7
aS"the child 's first name"
p8
aS'name and email address'
p9
aS"your friend 's name and email address"
p10
aS"your friend 's e-mail address"
p11
aS'you'
p12
aS'full name and shipping address'
p13
aS'we'
p14
aS'email addresses'
p15
aS'email address'
p16
aS'telephone number'
p17
aS'phone number'
p18
aS'phone or email'
p19
aS'name, postal address, email address, phone number'
p20
aS'email, phone or mail'
p21
aS'your full name'
p22
aS'full name'
p23
aS'this information'
p24
aS'your full name and shipping address'
p25
aS'name'
p26
aS'shipping address'
p27
aS'us'
p28
aS'email'
p29
aS"the child 's"
p30
aS'email addresses as well'
p31
a.