(lp0
S"users '"
p1
aS'address information'
p2
aS'names and addresses'
p3
aS'mailing lists'
p4
aS'your name'
p5
aS'contact information such as your name, address, and email address'
p6
aS"the customer 's"
p7
aS'EMAIL'
p8
aS'your e-mail'
p9
aS'address -LRB- but not your email address -RRB-'
p10
aS'name, address, email address or telephone'
p11
aS'your telephone number'
p12
aS'your telephone number or cell phone number'
p13
aS'full name'
p14
aS'GameStop'
p15
aS'your name, address, email address or telephone number'
p16
aS'your name, address, email address or telephone'
p17
aS'customer'
p18
aS'updated delivery and address information'
p19
aS'email address'
p20
aS'email address, name, postal address, and phone number .'
p21
aS'ame'
p22
aS'phone or email'
p23
aS'name, address, email address, phone number, or'
p24
aS'other information that identifies you, we may show them your publicly visible Google Profile information'
p25
aS'your information such as name and email address'
p26
aS"a user 's telephone number or a wireless email address"
p27
aS'your name and address'
p28
aS'contact information'
p29
aS'our postal and phone marketing lists'
p30
aS'electronic means'
p31
aS'postal'
p32
aS'emails'
p33
aS"Users '"
p34
aS'name, address, email address or telephone number'
p35
aS"users ' email addresses"
p36
aS'name'
p37
aS'limitation, your name, postal address -LRB- and any other information we combine with that information -RRB-'
p38
aS'gender'
p39
aS'shipping address'
p40
aS'list'
p41
aS'your address information'
p42
aS'name, screen name'
p43
aS'communications'
p44
aS'name or email address'
p45
aS'your information'
p46
aS'ame, email address, home address, etc. .'
p47
aS'your contact information'
p48
aS'your name, address, and email address'
p49
aS'our postal'
p50
aS'that business'
p51
aS'a user name or e-mail address'
p52
aS'a wireless email'
p53
aS'personal postal'
p54
aS'ames and addresses'
p55
aS'postal address'
p56
aS'our opt-in marketing list'
p57
aS"a user 's"
p58
aS'that information'
p59
aS'name and email address'
p60
aS'your email address and any other information you provided'
p61
aS'entry information'
p62
aS'e-mail'
p63
aS'name, email address, home address'
p64
aS'updated delivery and address information from our carriers or other third parties'
p65
aS'name, address, telephone number, email address,'
p66
aS'email'
p67
aS"customer 's name"
p68
aS'we'
p69
aS'your name and postal address'
p70
aS'your name, email address, and/or mailing address'
p71
aS'address'
p72
aS'a user name'
p73
aS'name, address, phone number and email address'
p74
aS"our users ' email addresses"
p75
aS'First'
p76
aS'our cookies'
p77
aS'limitation'
p78
aS'e-mail addresses'
p79
aS'your personal information, such as your name or email address'
p80
aS'Last Name'
p81
aS'your email address'
p82
aS'address -LRB- but not your email address -RRB- and certain other information'
p83
aS'etc'
p84
aS'postal and phone'
p85
aS'personal postal and phone number information'
p86
aS'your name and mailing address -LRB- but not your email address -RRB- and certain other information'
p87
aS'name, address, phone number and email'
p88
aS'birth date'
p89
aS'you by electronic means'
p90
aS'cell phone number'
p91
aS'email addresses'
p92
aS'number'
p93
aS'names'
p94
aS"Users ' full names"
p95
aS'your contact information -LRB- website address and related information, email address, mailing and payment addresses, and contact information -RRB-'
p96
aS'mailing address'
p97
aS'your cell phone'
p98
aS'telephone number, email address'
p99
aS'your name and mailing address'
p100
aS'website address and related information, email address, mailing and payment addresses, and contact information'
p101
aS'other information'
p102
aS'your personal information'
p103
aS"Addresses you provide in the `` Email ''"
p104
aS'Some of our cookies'
p105
aS'your name, email address, and/or mailing'
p106
aS'screen name'
p107
aS'telephone number'
p108
aS"a user 's telephone number"
p109
aS'name, email address, home address, etc'
p110
aS'phone'
p111
aS'our carriers'
p112
aS'address, email address or telephone number'
p113
aS'your name, email address,'
p114
aS'home address'
p115
aS'name, address, telephone number, email address'
p116
aS'your full name and shipping address'
p117
aS'name, address, e-mail address, telephone number'
p118
aS'any other information we combine with that information'
p119
aS"customer 's"
p120
aS'publicly visible Google Profile information'
p121
aS'etc.'
p122
aS'name, postal address, and phone number'
p123
aS'e-mail address'
p124
aS'your name, postal address -LRB- and any other information we combine with that information -RRB-'
p125
aS"a user 's telephone number or a wireless email"
p126
aS'e-mails'
p127
aS'name and postal address'
p128
aS'name, address, email address, phone number'
p129
aS'information'
p130
aS'direct mai'
p131
aS'your name and mailing'
p132
aS'your name, address, email address or telephone number .'
p133
aS'website address and related information'
p134
aS'contact you by electronic means'
p135
aS'name, address, e-mail address, telephone number,'
p136
aS'phone marketing lists'
p137
aS'our opt-in marketing'
p138
aS'e-mail address, telephone number'
p139
aS'name, last name, gender, birth date and email address'
p140
aS"Site users ' e-mail addresses"
p141
aS'you'
p142
aS'full name and shipping address'
p143
aS'them your publicly visible Google Profile information'
p144
aS"a user 's email address"
p145
aS'any other information you provided'
p146
aS'phone number'
p147
aS'your name and e-mail address'
p148
aS'gender, birth date and email address'
p149
aS'mailing and payment addresses'
p150
aS'the contact information'
p151
aS'any other information'
p152
aS'our carriers or other third parties'
p153
aS'your full name'
p154
aS"the customer 's name"
p155
aS'other third parties'
p156
aS'that business your name and e-mail address .'
p157
aS'Addresses'
p158
aS'customer mailing lists'
p159
aS'name, address, e-mail address'
p160
aS'last name'
p161
aS'phone number information'
p162
aS'name and address'
p163
aS'Some'
p164
aS"Site users '"
p165
aS'certain other information'
p166
aS'contact'
p167
aS'your name and e-mail'
p168
aS'your publicly visible Google Profile information'
p169
aS'your e-mail address'
p170
aS'mailing'
p171
aS'your name or email address'
p172
a.