(lp0
S'protected health'
p1
aS'your location in our facility'
p2
aS'This notice'
p3
aS'e.g.'
p4
aS'health -'
p5
aS'nformation'
p6
aS'purposes'
p7
aS"an individual 's protected health"
p8
aS'the different types of permission'
p9
aS'your location'
p10
aS'Health'
p11
aS'your name'
p12
aS'information'
p13
aS'nformation about your health'
p14
aS'the different types'
p15
aS'your name, your location in our facility, your general condition'
p16
aS'information about your health'
p17
aS'your name, your location in our facility, your general condition -LRB- e.g., fair, stable, critical, etc. .'
p18
aS'our facility, your general condition -LRB- e.g., fair, stable, critical'
p19
aS'health'
p20
aS'treatment'
p21
aS'r health information'
p22
aS'you'
p23
aS'a variety of purposes'
p24
aS'ealth information'
p25
aS'we'
p26
aS"an individual 's protected health information"
p27
aS'permission'
p28
aS'a variety'
p29
aS'your health'
p30
aS'them'
p31
aS'This directory information'
p32
aS'information about them'
p33
aS'your health information'
p34
aS'your general condition'
p35
aS'health information'
p36
aS'your location in our facility, your general condition -LRB- e.g., fair, stable, critical'
p37
aS'THIS NOTICE'
p38
aS'etc. .'
p39
aS'our facility'
p40
aS'r'
p41
aS'your general condition -LRB- e.g., fair, stable, critical'
p42
aS"an individual 's"
p43
aS'PERMISSIONS'
p44
a.